; ModuleID = 'bitcode_bcmp_impl.bc'
source_filename = "llvm-link"
target datalayout = "e-m:e-p270:32:32-p271:32:32-p272:64:64-i64:64-f80:128-n8:16:32:64-S128"
target triple = "x86_64-unknown-linux-gnu"

%"core::result::Result<stellar_xdr::next::generated::ScVal, raw_val::ConversionError>" = type { i8, [39 x i8] }
%IncrementContractClient = type { { i64, i64* }, i64* }
%"core::cell::RefCell<alloc::vec::Vec<alloc::rc::Rc<dyn soroban_env_verification::host::ContractFunctionSet>>>" = type { i64, %"core::cell::UnsafeCell<alloc::vec::Vec<alloc::rc::Rc<dyn soroban_env_verification::host::ContractFunctionSet>>>" }
%"core::cell::UnsafeCell<alloc::vec::Vec<alloc::rc::Rc<dyn soroban_env_verification::host::ContractFunctionSet>>>" = type { %"alloc::vec::Vec<alloc::rc::Rc<dyn soroban_env_verification::host::ContractFunctionSet>>" }
%"alloc::vec::Vec<alloc::rc::Rc<dyn soroban_env_verification::host::ContractFunctionSet>>" = type { { i64, i64* }, i64 }
%"alloc::rc::RcBox<soroban_env_verification::host::HostImpl>" = type { i64, i64, %"soroban_env_verification::host::HostImpl" }
%"soroban_env_verification::host::HostImpl" = type { %"core::cell::RefCell<alloc::vec::Vec<alloc::rc::Rc<dyn soroban_env_verification::host::ContractFunctionSet>>>", %"core::cell::RefCell<alloc::vec::Vec<alloc::rc::Rc<dyn soroban_env_verification::host::ContractFunctionSet>>>", %"core::cell::RefCell<soroban_env_verification::storage::Storage>" }
%"core::cell::RefCell<soroban_env_verification::storage::Storage>" = type { i64, %"core::cell::UnsafeCell<soroban_env_verification::storage::Storage>" }
%"core::cell::UnsafeCell<soroban_env_verification::storage::Storage>" = type { %"soroban_env_verification::storage::Storage" }
%"soroban_env_verification::storage::Storage" = type { %"core::cell::UnsafeCell<alloc::vec::Vec<alloc::rc::Rc<dyn soroban_env_verification::host::ContractFunctionSet>>>" }
%"core::option::Option<(core::ptr::non_null::NonNull<u8>, core::alloc::layout::Layout)>" = type { [2 x i64], i64 }
%"core::result::Result<core::ptr::non_null::NonNull<[u8]>, collections::TryReserveError>" = type { i64, [2 x i64] }
%"alloc::rc::RcBox<dyn host::ContractFunctionSet>" = type { i64, i64, {} }
%"alloc::rc::RcBox<stellar_xdr::next::generated::ScVal>" = type { i64, i64, %"core::result::Result<stellar_xdr::next::generated::ScVal, raw_val::ConversionError>" }
%"stellar_xdr::next::generated::ScMapEntry" = type { %"core::result::Result<stellar_xdr::next::generated::ScVal, raw_val::ConversionError>", %"core::result::Result<stellar_xdr::next::generated::ScVal, raw_val::ConversionError>" }
%"soroban_sdk::env::Env::register_contract::InternalContractFunctionSet<IncrementContract>" = type { %IncrementContract }
%IncrementContract = type {}
%"soroban_env_common::symbol::SymbolStr" = type { [10 x i8] }
%"string::String" = type { %"vec::Vec<u8>" }
%"vec::Vec<u8>" = type { { i64, i8* }, i64 }
%"stellar_xdr::next::generated::ScAddress" = type { i8, [32 x i8] }
%"core::mem::maybe_uninit::MaybeUninit<next::generated::ScVal>" = type { [5 x i64] }
%"core::mem::maybe_uninit::MaybeUninit<next::generated::ScMapEntry>" = type { [10 x i64] }

@vtable.0 = private unnamed_addr constant <{ i8*, [16 x i8], i8* }> <{ i8* bitcast (void (%"soroban_sdk::env::Env::register_contract::InternalContractFunctionSet<IncrementContract>"*)* @"_ZN4core3ptr136drop_in_place$LT$soroban_sdk..env..Env..register_contract..InternalContractFunctionSet$LT$nostd_test_contract..IncrementContract$GT$$GT$17h359c32ac669a0c1cE" to i8*), [16 x i8] c"\00\00\00\00\00\00\00\00\01\00\00\00\00\00\00\00", i8* bitcast ({ i64, i64 } (%"soroban_sdk::env::Env::register_contract::InternalContractFunctionSet<IncrementContract>"*, i64*, i64**, [0 x i64]*, i64)* @"_ZN150_$LT$soroban_sdk..env..Env..register_contract..InternalContractFunctionSet$LT$T$GT$$u20$as$u20$soroban_env_verification..host..ContractFunctionSet$GT$4call17h5541ab14ad760c91E" to i8*) }>, align 8
@alloc220 = private unnamed_addr constant <{ [9 x i8] }> <{ [9 x i8] c"increment" }>, align 1
@alloc433 = private unnamed_addr constant <{}> zeroinitializer, align 8

; Function Attrs: minsize nounwind nonlazybind optsize
define dso_local i32 @main(i32 %_argc, i8** nocapture readnone %_argv) unnamed_addr #0 {
start:
  %arr.i.i.i.sroa.0 = alloca [7 x i8], align 1
  %arr.i.i.i.sroa.6 = alloca [17 x i8], align 1
  %_8.i.i.sroa.9 = alloca [24 x i8], align 8
  %id_32_bytes.i.i = alloca [32 x i8], align 1
  %f.i.i = alloca i64, align 8
  %_23.i.i.i = alloca %"core::result::Result<stellar_xdr::next::generated::ScVal, raw_val::ConversionError>", align 8
  %_23.i.i.i.i.i = alloca %"core::result::Result<stellar_xdr::next::generated::ScVal, raw_val::ConversionError>", align 8
  %args.i.i.i.i = alloca { i64, i64* }, align 8
  %bin.i.i.i.i = alloca { i64, i64* }, align 8
  %client = alloca %IncrementContractClient, align 8
  %id = alloca { i64, i64* }, align 8
  %e = alloca i64*, align 8
  %0 = tail call i32 @__VERIFIER_nondet_u32() #23
  %1 = bitcast i64** %e to i8*
  call void @llvm.lifetime.start.p0i8(i64 8, i8* nonnull %1)
  %_3.i.i.i.i.i1 = tail call dereferenceable_or_null(112) i8* @malloc(i64 112) #23
  %2 = icmp eq i8* %_3.i.i.i.i.i1, null
  br i1 %2, label %bb3.i.i.i.i2, label %"_ZN64_$LT$soroban_sdk..env..Env$u20$as$u20$core..default..Default$GT$7default17h82511e94470e6ae3E.exit"

bb3.i.i.i.i2:                                     ; preds = %start
  tail call void @llvm.trap() #23, !noalias !7
  unreachable

"_ZN64_$LT$soroban_sdk..env..Env$u20$as$u20$core..default..Default$GT$7default17h82511e94470e6ae3E.exit": ; preds = %start
  %_6.sroa.0.0..sroa_cast.i.i = bitcast i8* %_3.i.i.i.i.i1 to i64*
  store i64 1, i64* %_6.sroa.0.0..sroa_cast.i.i, align 8, !noalias !7
  %_6.sroa.4.0..sroa_idx.i.i = getelementptr inbounds i8, i8* %_3.i.i.i.i.i1, i64 8
  %_6.sroa.4.0..sroa_cast.i.i = bitcast i8* %_6.sroa.4.0..sroa_idx.i.i to i64*
  store i64 1, i64* %_6.sroa.4.0..sroa_cast.i.i, align 8, !noalias !7
  %_1.i.i.i.sroa.0.0._6.sroa.5.0..sroa_raw_idx.i.i.sroa_raw_idx = getelementptr inbounds i8, i8* %_3.i.i.i.i.i1, i64 16
  call void @llvm.memset.p0i8.i64(i8* noundef nonnull align 8 dereferenceable(16) %_1.i.i.i.sroa.0.0._6.sroa.5.0..sroa_raw_idx.i.i.sroa_raw_idx, i8 0, i64 16, i1 false)
  %_1.i.i.i.sroa.4.0._6.sroa.5.0..sroa_raw_idx.i.i.sroa_idx = getelementptr inbounds i8, i8* %_3.i.i.i.i.i1, i64 32
  %_1.i.i.i.sroa.4.0._6.sroa.5.0..sroa_raw_idx.i.i.sroa_cast = bitcast i8* %_1.i.i.i.sroa.4.0._6.sroa.5.0..sroa_raw_idx.i.i.sroa_idx to i64**
  store i64* inttoptr (i64 8 to i64*), i64** %_1.i.i.i.sroa.4.0._6.sroa.5.0..sroa_raw_idx.i.i.sroa_cast, align 8
  %_1.i.i.i.sroa.5.0._6.sroa.5.0..sroa_raw_idx.i.i.sroa_raw_idx = getelementptr inbounds i8, i8* %_3.i.i.i.i.i1, i64 40
  call void @llvm.memset.p0i8.i64(i8* noundef nonnull align 8 dereferenceable(24) %_1.i.i.i.sroa.5.0._6.sroa.5.0..sroa_raw_idx.i.i.sroa_raw_idx, i8 0, i64 24, i1 false)
  %_1.i.i.i.sroa.6.0._6.sroa.5.0..sroa_raw_idx.i.i.sroa_idx = getelementptr inbounds i8, i8* %_3.i.i.i.i.i1, i64 64
  %_1.i.i.i.sroa.6.0._6.sroa.5.0..sroa_raw_idx.i.i.sroa_cast = bitcast i8* %_1.i.i.i.sroa.6.0._6.sroa.5.0..sroa_raw_idx.i.i.sroa_idx to i64**
  store i64* inttoptr (i64 8 to i64*), i64** %_1.i.i.i.sroa.6.0._6.sroa.5.0..sroa_raw_idx.i.i.sroa_cast, align 8
  %_1.i.i.i.sroa.7.0._6.sroa.5.0..sroa_raw_idx.i.i.sroa_raw_idx = getelementptr inbounds i8, i8* %_3.i.i.i.i.i1, i64 72
  call void @llvm.memset.p0i8.i64(i8* noundef nonnull align 8 dereferenceable(24) %_1.i.i.i.sroa.7.0._6.sroa.5.0..sroa_raw_idx.i.i.sroa_raw_idx, i8 0, i64 24, i1 false)
  %_1.i.i.i.sroa.8.0._6.sroa.5.0..sroa_raw_idx.i.i.sroa_idx = getelementptr inbounds i8, i8* %_3.i.i.i.i.i1, i64 96
  %_1.i.i.i.sroa.8.0._6.sroa.5.0..sroa_raw_idx.i.i.sroa_cast = bitcast i8* %_1.i.i.i.sroa.8.0._6.sroa.5.0..sroa_raw_idx.i.i.sroa_idx to i64**
  store i64* inttoptr (i64 8 to i64*), i64** %_1.i.i.i.sroa.8.0._6.sroa.5.0..sroa_raw_idx.i.i.sroa_cast, align 8
  %_1.i.i.i.sroa.9.0._6.sroa.5.0..sroa_raw_idx.i.i.sroa_idx = getelementptr inbounds i8, i8* %_3.i.i.i.i.i1, i64 104
  %_1.i.i.i.sroa.9.0._6.sroa.5.0..sroa_raw_idx.i.i.sroa_cast = bitcast i8* %_1.i.i.i.sroa.9.0._6.sroa.5.0..sroa_raw_idx.i.i.sroa_idx to i64*
  store i64 0, i64* %_1.i.i.i.sroa.9.0._6.sroa.5.0..sroa_raw_idx.i.i.sroa_cast, align 8
  %3 = bitcast i64** %e to i8**
  store i8* %_3.i.i.i.i.i1, i8** %3, align 8
  %4 = bitcast { i64, i64* }* %id to i8*
  call void @llvm.lifetime.start.p0i8(i64 16, i8* nonnull %4)
  %_3.i.i.i = tail call i8* @malloc(i64 16) #23
  %5 = icmp eq i8* %_3.i.i.i, null
  br i1 %5, label %bb3.i.i.i.i, label %"_ZN5alloc2rc11Rc$LT$T$GT$3new17he76aec86a2010aa1E.exit.i"

bb3.i.i.i.i:                                      ; preds = %"_ZN64_$LT$soroban_sdk..env..Env$u20$as$u20$core..default..Default$GT$7default17h82511e94470e6ae3E.exit"
  tail call void @llvm.trap() #23
  unreachable

"_ZN5alloc2rc11Rc$LT$T$GT$3new17he76aec86a2010aa1E.exit.i": ; preds = %"_ZN64_$LT$soroban_sdk..env..Env$u20$as$u20$core..default..Default$GT$7default17h82511e94470e6ae3E.exit"
  %6 = bitcast i8* %_3.i.i.i to i64*
  store i64 1, i64* %6, align 8, !noalias !10
  %7 = getelementptr inbounds i8, i8* %_3.i.i.i, i64 8
  %8 = bitcast i8* %7 to i64*
  store i64 1, i64* %8, align 8, !noalias !10
  %_4.i.i.i = getelementptr inbounds i8, i8* %_3.i.i.i.i.i1, i64 16
  %9 = bitcast i8* %_4.i.i.i to i64*
  %10 = load i64, i64* %9, align 8, !noalias !13
  %11 = icmp eq i64 %10, 0
  br i1 %11, label %"_ZN4core4cell16RefCell$LT$T$GT$10borrow_mut17hfc809b734a6748d8E.exit.i", label %bb1.i.i.i

bb1.i.i.i:                                        ; preds = %"_ZN5alloc2rc11Rc$LT$T$GT$3new17he76aec86a2010aa1E.exit.i"
  tail call void @llvm.trap() #23, !noalias !13
  unreachable

"_ZN4core4cell16RefCell$LT$T$GT$10borrow_mut17hfc809b734a6748d8E.exit.i": ; preds = %"_ZN5alloc2rc11Rc$LT$T$GT$3new17he76aec86a2010aa1E.exit.i"
  store i64 -1, i64* %9, align 8, !alias.scope !16, !noalias !13
  %12 = getelementptr inbounds i8, i8* %_3.i.i.i.i.i1, i64 24
  %13 = bitcast i8* %12 to i64*
  %14 = getelementptr inbounds i8, i8* %_3.i.i.i.i.i1, i64 40
  %15 = bitcast i8* %14 to i64*
  %_4.i.i = load i64, i64* %15, align 8, !alias.scope !19, !noalias !22
  %16 = load i64, i64* %13, align 8, !alias.scope !24, !noalias !22
  %_3.i.i = icmp eq i64 %_4.i.i, %16
  br i1 %_3.i.i, label %bb2.i.i, label %"_ZN5alloc3vec16Vec$LT$T$C$A$GT$4push17hf18c888b0306642fE.exit.i"

bb2.i.i:                                          ; preds = %"_ZN4core4cell16RefCell$LT$T$GT$10borrow_mut17hfc809b734a6748d8E.exit.i"
  %_6.i.i = bitcast i8* %12 to { i64, i64* }*
  tail call fastcc void @"_ZN5alloc7raw_vec19RawVec$LT$T$C$A$GT$16reserve_for_push17h6f5ebe96b2275d17E"({ i64, i64* }* noalias noundef nonnull align 8 dereferenceable(16) %_6.i.i, i64 %_4.i.i) #23, !noalias !22
  %_13.pre.i.i = load i64, i64* %15, align 8, !alias.scope !19, !noalias !22
  %.phi.trans.insert = getelementptr inbounds i8, i8* %_3.i.i.i.i.i1, i64 32
  %.phi.trans.insert96 = bitcast i8* %.phi.trans.insert to { i64*, i64* }**
  %_21.i.i.i.i.pre = load { i64*, i64* }*, { i64*, i64* }** %.phi.trans.insert96, align 8, !alias.scope !27, !noalias !22
  br label %"_ZN5alloc3vec16Vec$LT$T$C$A$GT$4push17hf18c888b0306642fE.exit.i"

"_ZN5alloc3vec16Vec$LT$T$C$A$GT$4push17hf18c888b0306642fE.exit.i": ; preds = %bb2.i.i, %"_ZN4core4cell16RefCell$LT$T$GT$10borrow_mut17hfc809b734a6748d8E.exit.i"
  %_21.i.i.i.i = phi { i64*, i64* }* [ %_21.i.i.i.i.pre, %bb2.i.i ], [ inttoptr (i64 8 to { i64*, i64* }*), %"_ZN4core4cell16RefCell$LT$T$GT$10borrow_mut17hfc809b734a6748d8E.exit.i" ]
  %_13.i.i = phi i64 [ %_13.pre.i.i, %bb2.i.i ], [ %_4.i.i, %"_ZN4core4cell16RefCell$LT$T$GT$10borrow_mut17hfc809b734a6748d8E.exit.i" ]
  %src.sroa.0.0..sroa_idx.i.i.i = getelementptr inbounds { i64*, i64* }, { i64*, i64* }* %_21.i.i.i.i, i64 %_13.i.i, i32 0
  %17 = bitcast i64** %src.sroa.0.0..sroa_idx.i.i.i to i8**
  store i8* %_3.i.i.i, i8** %17, align 8, !noalias !32
  %src.sroa.2.0..sroa_idx1.i.i.i = getelementptr inbounds { i64*, i64* }, { i64*, i64* }* %_21.i.i.i.i, i64 %_13.i.i, i32 1
  store i64* bitcast (<{ i8*, [16 x i8], i8* }>* @vtable.0 to i64*), i64** %src.sroa.2.0..sroa_idx1.i.i.i, align 8, !noalias !32
  %18 = load i64, i64* %15, align 8, !alias.scope !19, !noalias !22
  %19 = add i64 %18, 1
  store i64 %19, i64* %15, align 8, !alias.scope !19, !noalias !22
  %20 = load i64, i64* %9, align 8, !noalias !35
  %_6.i.i.i.i4 = add i64 %20, 1
  store i64 %_6.i.i.i.i4, i64* %9, align 8, !alias.scope !38, !noalias !35
  %_21.i = getelementptr inbounds i8, i8* %_3.i.i.i.i.i1, i64 16
  %21 = bitcast i8* %_21.i to %"core::cell::RefCell<alloc::vec::Vec<alloc::rc::Rc<dyn soroban_env_verification::host::ContractFunctionSet>>>"*
  %22 = tail call fastcc { i64*, i64* } @"_ZN4core4cell16RefCell$LT$T$GT$6borrow17h6c19580b56ec9794E"(%"core::cell::RefCell<alloc::vec::Vec<alloc::rc::Rc<dyn soroban_env_verification::host::ContractFunctionSet>>>"* noundef nonnull align 8 %21) #23, !noalias !13
  %.fca.0.extract1.i = extractvalue { i64*, i64* } %22, 0
  %.fca.1.extract3.i = extractvalue { i64*, i64* } %22, 1
  %23 = icmp ne i64* %.fca.0.extract1.i, null
  tail call void @llvm.assume(i1 %23) #23
  %24 = getelementptr inbounds i64, i64* %.fca.0.extract1.i, i64 2
  %25 = load i64, i64* %24, align 8, !alias.scope !41, !noalias !13
  %_15.i = add i64 %25, -1
  %26 = tail call i64 @llvm.bswap.i64(i64 %_15.i) #23
  %27 = tail call fastcc { i64, i8* } @"_ZN5alloc7raw_vec19RawVec$LT$T$C$A$GT$11allocate_in17he82cf890ab5333e2E"(i64 32) #23, !noalias !44
  %_3.0.i.i.i.i.i.i = extractvalue { i64, i8* } %27, 0
  %_3.1.i.i.i.i.i.i = extractvalue { i64, i8* } %27, 1
  call void @llvm.memset.p0i8.i64(i8* noundef nonnull align 1 dereferenceable(24) %_3.1.i.i.i.i.i.i, i8 0, i64 24, i1 false)
  %i_bytes.i.i.sroa.4.0._3.1.i.i.i.i.i.i.sroa_idx = getelementptr inbounds i8, i8* %_3.1.i.i.i.i.i.i, i64 24
  %i_bytes.i.i.sroa.4.0._3.1.i.i.i.i.i.i.sroa_cast = bitcast i8* %i_bytes.i.i.sroa.4.0._3.1.i.i.i.i.i.i.sroa_idx to i64*
  store i64 %26, i64* %i_bytes.i.i.sroa.4.0._3.1.i.i.i.i.i.i.sroa_cast, align 1, !noalias !64
  %_8.i.i.i.i.i = getelementptr inbounds i8, i8* %_3.i.i.i.i.i1, i64 48
  %28 = bitcast i8* %_8.i.i.i.i.i to %"core::cell::RefCell<alloc::vec::Vec<alloc::rc::Rc<dyn soroban_env_verification::host::ContractFunctionSet>>>"*
  %29 = tail call fastcc { i64*, i64* } @"_ZN4core4cell16RefCell$LT$T$GT$6borrow17h6c19580b56ec9794E"(%"core::cell::RefCell<alloc::vec::Vec<alloc::rc::Rc<dyn soroban_env_verification::host::ContractFunctionSet>>>"* noundef nonnull align 8 %28) #23, !noalias !67
  %.fca.0.extract.i.i.i.i.i = extractvalue { i64*, i64* } %29, 0
  %.fca.1.extract.i.i.i.i.i = extractvalue { i64*, i64* } %29, 1
  %30 = icmp ne i64* %.fca.0.extract.i.i.i.i.i, null
  tail call void @llvm.assume(i1 %30) #23, !noalias !71
  %31 = getelementptr inbounds i64, i64* %.fca.0.extract.i.i.i.i.i, i64 2
  %32 = load i64, i64* %31, align 8, !alias.scope !72, !noalias !67
  %33 = icmp ne i64* %.fca.1.extract.i.i.i.i.i, null
  tail call void @llvm.assume(i1 %33) #23, !noalias !71
  %34 = load i64, i64* %.fca.1.extract.i.i.i.i.i, align 8, !noalias !75
  %_6.i.i.i.i.i.i.i.i = add i64 %34, -1
  store i64 %_6.i.i.i.i.i.i.i.i, i64* %.fca.1.extract.i.i.i.i.i, align 8, !alias.scope !78, !noalias !75
  %_11.i.i.i.i.i = icmp ugt i64 %32, 4294967295
  br i1 %_11.i.i.i.i.i, label %bb6.i.i.i.i.i, label %bb7.i.i.i.i.i

bb7.i.i.i.i.i:                                    ; preds = %"_ZN5alloc3vec16Vec$LT$T$C$A$GT$4push17hf18c888b0306642fE.exit.i"
  %_4.i.i.i.i.i.i.i = getelementptr inbounds i8, i8* %_3.i.i.i.i.i1, i64 48
  %35 = bitcast i8* %_4.i.i.i.i.i.i.i to i64*
  %36 = load i64, i64* %35, align 8, !noalias !67
  %37 = icmp eq i64 %36, 0
  br i1 %37, label %bb2.i, label %bb1.i.i.i.i.i.i.i

bb1.i.i.i.i.i.i.i:                                ; preds = %bb7.i.i.i.i.i
  tail call void @llvm.trap() #23, !noalias !67
  unreachable

bb6.i.i.i.i.i:                                    ; preds = %"_ZN5alloc3vec16Vec$LT$T$C$A$GT$4push17hf18c888b0306642fE.exit.i"
  tail call void @llvm.trap() #23, !noalias !67
  unreachable

bb2.i:                                            ; preds = %bb7.i.i.i.i.i
  store i64 -1, i64* %35, align 8, !alias.scope !81, !noalias !67
  %38 = getelementptr inbounds i8, i8* %_3.i.i.i.i.i1, i64 56
  %39 = bitcast i8* %38 to %"alloc::vec::Vec<alloc::rc::Rc<dyn soroban_env_verification::host::ContractFunctionSet>>"*
  %40 = getelementptr inbounds %"core::result::Result<stellar_xdr::next::generated::ScVal, raw_val::ConversionError>", %"core::result::Result<stellar_xdr::next::generated::ScVal, raw_val::ConversionError>"* %_23.i.i.i.i.i, i64 0, i32 0
  call void @llvm.lifetime.start.p0i8(i64 40, i8* nonnull %40) #23, !noalias !84
  %_4.i.i.i.i.sroa.0.0..sroa_idx = getelementptr inbounds %"core::result::Result<stellar_xdr::next::generated::ScVal, raw_val::ConversionError>", %"core::result::Result<stellar_xdr::next::generated::ScVal, raw_val::ConversionError>"* %_23.i.i.i.i.i, i64 0, i32 1, i64 7
  %_4.i.i.i.i.sroa.0.0..sroa_cast = bitcast i8* %_4.i.i.i.i.sroa.0.0..sroa_idx to i64*
  store i64 %_3.0.i.i.i.i.i.i, i64* %_4.i.i.i.i.sroa.0.0..sroa_cast, align 8, !noalias !86
  %_4.i.i.i.i.sroa.4.0..sroa_idx = getelementptr inbounds %"core::result::Result<stellar_xdr::next::generated::ScVal, raw_val::ConversionError>", %"core::result::Result<stellar_xdr::next::generated::ScVal, raw_val::ConversionError>"* %_23.i.i.i.i.i, i64 0, i32 1, i64 15
  %_4.i.i.i.i.sroa.4.0..sroa_cast = bitcast i8* %_4.i.i.i.i.sroa.4.0..sroa_idx to i8**
  store i8* %_3.1.i.i.i.i.i.i, i8** %_4.i.i.i.i.sroa.4.0..sroa_cast, align 8, !noalias !86
  %_4.i.i.i.i.sroa.5.0..sroa_idx = getelementptr inbounds %"core::result::Result<stellar_xdr::next::generated::ScVal, raw_val::ConversionError>", %"core::result::Result<stellar_xdr::next::generated::ScVal, raw_val::ConversionError>"* %_23.i.i.i.i.i, i64 0, i32 1, i64 23
  %_4.i.i.i.i.sroa.5.0..sroa_cast = bitcast i8* %_4.i.i.i.i.sroa.5.0..sroa_idx to i64*
  store i64 32, i64* %_4.i.i.i.i.sroa.5.0..sroa_cast, align 8, !noalias !86
  store i8 6, i8* %40, align 8, !alias.scope !87, !noalias !90
  call fastcc void @"_ZN5alloc3vec16Vec$LT$T$C$A$GT$4push17h45b3f45b4f341b46E"(%"alloc::vec::Vec<alloc::rc::Rc<dyn soroban_env_verification::host::ContractFunctionSet>>"* noalias noundef nonnull align 8 dereferenceable(24) %39, %"core::result::Result<stellar_xdr::next::generated::ScVal, raw_val::ConversionError>"* noalias nocapture noundef nonnull dereferenceable(40) %_23.i.i.i.i.i) #23, !noalias !67
  call void @llvm.lifetime.end.p0i8(i64 40, i8* nonnull %40) #23, !noalias !84
  %41 = load i64, i64* %35, align 8, !noalias !92
  %_6.i.i.i7.i.i.i.i.i = add i64 %41, 1
  store i64 %_6.i.i.i7.i.i.i.i.i, i64* %35, align 8, !alias.scope !95, !noalias !92
  %major1.i.i.i.i.i.i.i.i = shl nuw i64 %32, 32
  %_11.i.i.i.i.i.i.i.i.i = or i64 %major1.i.i.i.i.i.i.i.i, 103
  %42 = icmp ne i64* %.fca.1.extract3.i, null
  tail call void @llvm.assume(i1 %42) #23
  %43 = load i64, i64* %.fca.1.extract3.i, align 8, !noalias !98
  %_6.i.i.i7.i = add i64 %43, -1
  store i64 %_6.i.i.i7.i, i64* %.fca.1.extract3.i, align 8, !alias.scope !101, !noalias !98
  tail call void @llvm.experimental.noalias.scope.decl(metadata !104)
  tail call void @llvm.experimental.noalias.scope.decl(metadata !107) #23
  tail call void @llvm.experimental.noalias.scope.decl(metadata !110) #23
  tail call void @llvm.experimental.noalias.scope.decl(metadata !113) #23
  %44 = bitcast i64** %e to %"alloc::rc::RcBox<soroban_env_verification::host::HostImpl>"**
  %_31.i.i.i.i.i.i = load %"alloc::rc::RcBox<soroban_env_verification::host::HostImpl>"*, %"alloc::rc::RcBox<soroban_env_verification::host::HostImpl>"** %44, align 8, !alias.scope !116, !noalias !121, !nonnull !123
  %45 = getelementptr %"alloc::rc::RcBox<soroban_env_verification::host::HostImpl>", %"alloc::rc::RcBox<soroban_env_verification::host::HostImpl>"* %_31.i.i.i.i.i.i, i64 0, i32 0
  %46 = load i64, i64* %45, align 8, !noalias !124
  %_4.i.i.i.i.i = icmp ne i64 %46, 0
  tail call void @llvm.assume(i1 %_4.i.i.i.i.i) #23
  %47 = add i64 %46, 1
  store i64 %47, i64* %45, align 8, !alias.scope !125, !noalias !124
  %_14.i.i.i.i.i = icmp eq i64 %47, 0
  br i1 %_14.i.i.i.i.i, label %bb6.i.i.i.i.i6, label %bb3.i.i

bb6.i.i.i.i.i6:                                   ; preds = %bb2.i
  tail call void @llvm.trap() #23, !noalias !124
  unreachable

bb3.i.i:                                          ; preds = %bb2.i
  %48 = bitcast { i64, i64* }* %bin.i.i.i.i to i8*
  call void @llvm.lifetime.start.p0i8(i64 16, i8* nonnull %48) #23, !noalias !128
  %49 = getelementptr inbounds { i64, i64* }, { i64, i64* }* %bin.i.i.i.i, i64 0, i32 0
  store i64 %_11.i.i.i.i.i.i.i.i.i, i64* %49, align 8, !noalias !128
  %50 = getelementptr inbounds { i64, i64* }, { i64, i64* }* %bin.i.i.i.i, i64 0, i32 1
  store i64* %45, i64** %50, align 8, !noalias !128
  %_5.i = call fastcc i64 @"_ZN85_$LT$soroban_env_verification..host..Host$u20$as$u20$soroban_env_common..env..Env$GT$9bytes_len17h8caf1757f9e4bd67E"(i64** noalias noundef nonnull readonly align 8 dereferenceable(8) %50, i64 %_11.i.i.i.i.i.i.i.i.i) #23
  %51 = lshr i64 %_5.i, 4
  %52 = trunc i64 %51 to i32
  %_2.i.i.i.i = icmp eq i32 %52, 32
  br i1 %_2.i.i.i.i, label %_ZN11soroban_sdk3env3Env17register_contract17hd59d8d091a6a5746E.exit, label %bb1.i.i

bb1.i.i:                                          ; preds = %bb3.i.i
  call fastcc void @"_ZN64_$LT$alloc..rc..Rc$LT$T$GT$$u20$as$u20$core..ops..drop..Drop$GT$4drop17h830fc5bba9825715E"(i64** noalias noundef nonnull align 8 dereferenceable(8) %50) #23
  call void @llvm.lifetime.end.p0i8(i64 16, i8* nonnull %48) #23, !noalias !128
  tail call void @llvm.trap() #23
  unreachable

_ZN11soroban_sdk3env3Env17register_contract17hd59d8d091a6a5746E.exit: ; preds = %bb3.i.i
  call void @llvm.lifetime.end.p0i8(i64 16, i8* nonnull %48) #23, !noalias !128
  %.fca.0.gep = getelementptr inbounds { i64, i64* }, { i64, i64* }* %id, i64 0, i32 0
  store i64 %_11.i.i.i.i.i.i.i.i.i, i64* %.fca.0.gep, align 8
  %.fca.1.gep = getelementptr inbounds { i64, i64* }, { i64, i64* }* %id, i64 0, i32 1
  store i64* %45, i64** %.fca.1.gep, align 8
  %53 = bitcast %IncrementContractClient* %client to i8*
  call void @llvm.lifetime.start.p0i8(i64 24, i8* nonnull %53)
  tail call void @llvm.experimental.noalias.scope.decl(metadata !132)
  %54 = load i64, i64* %45, align 8, !noalias !135
  %_4.i.i.i8 = icmp ne i64 %54, 0
  tail call void @llvm.assume(i1 %_4.i.i.i8) #23, !noalias !141
  %55 = add i64 %54, 1
  store i64 %55, i64* %45, align 8, !alias.scope !142, !noalias !135
  %_14.i.i.i = icmp eq i64 %55, 0
  br i1 %_14.i.i.i, label %bb6.i.i.i, label %"_ZN75_$LT$soroban_env_verification..host..Host$u20$as$u20$core..clone..Clone$GT$5clone17hb79718edf21da39aE.exit"

bb6.i.i.i:                                        ; preds = %_ZN11soroban_sdk3env3Env17register_contract17hd59d8d091a6a5746E.exit
  tail call void @llvm.trap() #23, !noalias !135
  unreachable

"_ZN75_$LT$soroban_env_verification..host..Host$u20$as$u20$core..clone..Clone$GT$5clone17hb79718edf21da39aE.exit": ; preds = %_ZN11soroban_sdk3env3Env17register_contract17hd59d8d091a6a5746E.exit
  %56 = getelementptr %"alloc::rc::RcBox<soroban_env_verification::host::HostImpl>", %"alloc::rc::RcBox<soroban_env_verification::host::HostImpl>"* %_31.i.i.i.i.i.i, i64 0, i32 0
  %57 = add i64 %54, 2
  store i64 %57, i64* %56, align 8, !alias.scope !145, !noalias !148
  %_14.i.i.i11 = icmp eq i64 %57, 0
  br i1 %_14.i.i.i11, label %bb6.i.i.i12, label %"_ZN75_$LT$soroban_env_verification..host..Host$u20$as$u20$core..clone..Clone$GT$5clone17hb79718edf21da39aE.exit13"

bb6.i.i.i12:                                      ; preds = %"_ZN75_$LT$soroban_env_verification..host..Host$u20$as$u20$core..clone..Clone$GT$5clone17hb79718edf21da39aE.exit"
  tail call void @llvm.trap() #23, !noalias !148
  unreachable

"_ZN75_$LT$soroban_env_verification..host..Host$u20$as$u20$core..clone..Clone$GT$5clone17hb79718edf21da39aE.exit13": ; preds = %"_ZN75_$LT$soroban_env_verification..host..Host$u20$as$u20$core..clone..Clone$GT$5clone17hb79718edf21da39aE.exit"
  %58 = getelementptr inbounds %IncrementContractClient, %IncrementContractClient* %client, i64 0, i32 1
  store i64* %45, i64** %58, align 8, !alias.scope !132, !noalias !154
  %59 = getelementptr inbounds %IncrementContractClient, %IncrementContractClient* %client, i64 0, i32 0, i32 0
  store i64 %_11.i.i.i.i.i.i.i.i.i, i64* %59, align 8, !alias.scope !132, !noalias !154
  %60 = getelementptr inbounds %IncrementContractClient, %IncrementContractClient* %client, i64 0, i32 0, i32 1
  store i64* %56, i64** %60, align 8, !alias.scope !132, !noalias !154
  %61 = load i64, i64* %56, align 8, !noalias !155
  %_4.i.i.i15 = icmp ne i64 %61, 0
  tail call void @llvm.assume(i1 %_4.i.i.i15) #23, !noalias !164
  %62 = add i64 %61, 1
  store i64 %62, i64* %56, align 8, !alias.scope !165, !noalias !155
  %_14.i.i.i16 = icmp eq i64 %62, 0
  br i1 %_14.i.i.i16, label %bb6.i.i.i17, label %"_ZN75_$LT$soroban_env_verification..host..Host$u20$as$u20$core..clone..Clone$GT$5clone17hb79718edf21da39aE.exit18"

bb6.i.i.i17:                                      ; preds = %"_ZN75_$LT$soroban_env_verification..host..Host$u20$as$u20$core..clone..Clone$GT$5clone17hb79718edf21da39aE.exit13"
  tail call void @llvm.trap() #23, !noalias !155
  unreachable

"_ZN75_$LT$soroban_env_verification..host..Host$u20$as$u20$core..clone..Clone$GT$5clone17hb79718edf21da39aE.exit18": ; preds = %"_ZN75_$LT$soroban_env_verification..host..Host$u20$as$u20$core..clone..Clone$GT$5clone17hb79718edf21da39aE.exit13"
  %_10.i.i.i = getelementptr inbounds i64, i64* %59, i64 2
  tail call void @llvm.experimental.noalias.scope.decl(metadata !168)
  tail call void @llvm.experimental.noalias.scope.decl(metadata !171) #23
  tail call void @llvm.experimental.noalias.scope.decl(metadata !174) #23
  %63 = bitcast i64* %_10.i.i.i to %"alloc::rc::RcBox<soroban_env_verification::host::HostImpl>"**
  %_31.i.i.i.i.i.i19 = load %"alloc::rc::RcBox<soroban_env_verification::host::HostImpl>"*, %"alloc::rc::RcBox<soroban_env_verification::host::HostImpl>"** %63, align 8, !alias.scope !177, !noalias !184, !nonnull !123
  %_8.i.i.i = getelementptr inbounds %"alloc::rc::RcBox<soroban_env_verification::host::HostImpl>", %"alloc::rc::RcBox<soroban_env_verification::host::HostImpl>"* %_31.i.i.i.i.i.i19, i64 0, i32 2, i32 1
  %64 = tail call fastcc { i64*, i64* } @"_ZN4core4cell16RefCell$LT$T$GT$6borrow17h6c19580b56ec9794E"(%"core::cell::RefCell<alloc::vec::Vec<alloc::rc::Rc<dyn soroban_env_verification::host::ContractFunctionSet>>>"* noundef nonnull align 8 %_8.i.i.i) #23, !noalias !186
  %.fca.0.extract.i.i.i = extractvalue { i64*, i64* } %64, 0
  %.fca.1.extract.i.i.i = extractvalue { i64*, i64* } %64, 1
  %65 = icmp ne i64* %.fca.0.extract.i.i.i, null
  tail call void @llvm.assume(i1 %65) #23
  %66 = getelementptr inbounds i64, i64* %.fca.0.extract.i.i.i, i64 2
  %67 = load i64, i64* %66, align 8, !alias.scope !187, !noalias !186
  %68 = icmp ne i64* %.fca.1.extract.i.i.i, null
  tail call void @llvm.assume(i1 %68) #23
  %69 = load i64, i64* %.fca.1.extract.i.i.i, align 8, !noalias !190
  %_6.i.i.i.i.i.i = add i64 %69, -1
  store i64 %_6.i.i.i.i.i.i, i64* %.fca.1.extract.i.i.i, align 8, !alias.scope !193, !noalias !190
  %_11.i.i.i = icmp ugt i64 %67, 4294967295
  br i1 %_11.i.i.i, label %bb6.i.i.i22, label %bb7.i.i.i

bb7.i.i.i:                                        ; preds = %"_ZN75_$LT$soroban_env_verification..host..Host$u20$as$u20$core..clone..Clone$GT$5clone17hb79718edf21da39aE.exit18"
  %_4.i.i.i.i.i20 = getelementptr inbounds %"alloc::rc::RcBox<soroban_env_verification::host::HostImpl>", %"alloc::rc::RcBox<soroban_env_verification::host::HostImpl>"* %_31.i.i.i.i.i.i19, i64 0, i32 2, i32 1, i32 0
  %70 = load i64, i64* %_4.i.i.i.i.i20, align 8, !noalias !186
  %71 = icmp eq i64 %70, 0
  br i1 %71, label %"_ZN70_$LT$soroban_sdk..env..Env$u20$as$u20$soroban_env_common..env..Env$GT$7vec_new17h6ccb0fa626a7a4faE.exit", label %bb1.i.i.i.i.i21

bb1.i.i.i.i.i21:                                  ; preds = %bb7.i.i.i
  tail call void @llvm.trap() #23, !noalias !186
  unreachable

bb6.i.i.i22:                                      ; preds = %"_ZN75_$LT$soroban_env_verification..host..Host$u20$as$u20$core..clone..Clone$GT$5clone17hb79718edf21da39aE.exit18"
  tail call void @llvm.trap() #23, !noalias !186
  unreachable

"_ZN70_$LT$soroban_sdk..env..Env$u20$as$u20$soroban_env_common..env..Env$GT$7vec_new17h6ccb0fa626a7a4faE.exit": ; preds = %bb7.i.i.i
  store i64 -1, i64* %_4.i.i.i.i.i20, align 8, !alias.scope !196, !noalias !186
  %72 = getelementptr inbounds %"alloc::rc::RcBox<soroban_env_verification::host::HostImpl>", %"alloc::rc::RcBox<soroban_env_verification::host::HostImpl>"* %_31.i.i.i.i.i.i19, i64 0, i32 2, i32 1, i32 1, i32 0, i32 0, i32 0
  %73 = bitcast i64* %72 to %"alloc::vec::Vec<alloc::rc::Rc<dyn soroban_env_verification::host::ContractFunctionSet>>"*
  %74 = getelementptr inbounds %"core::result::Result<stellar_xdr::next::generated::ScVal, raw_val::ConversionError>", %"core::result::Result<stellar_xdr::next::generated::ScVal, raw_val::ConversionError>"* %_23.i.i.i, i64 0, i32 0
  call void @llvm.lifetime.start.p0i8(i64 40, i8* nonnull %74) #23, !noalias !186
  %_13.sroa.0.0..sroa_idx.i.i = getelementptr inbounds %"core::result::Result<stellar_xdr::next::generated::ScVal, raw_val::ConversionError>", %"core::result::Result<stellar_xdr::next::generated::ScVal, raw_val::ConversionError>"* %_23.i.i.i, i64 0, i32 1, i64 7
  %_13.sroa.0.0..sroa_cast.i.i = bitcast i8* %_13.sroa.0.0..sroa_idx.i.i to i64*
  store i64 0, i64* %_13.sroa.0.0..sroa_cast.i.i, align 8, !noalias !199
  %_13.sroa.4.0..sroa_idx.i.i = getelementptr inbounds %"core::result::Result<stellar_xdr::next::generated::ScVal, raw_val::ConversionError>", %"core::result::Result<stellar_xdr::next::generated::ScVal, raw_val::ConversionError>"* %_23.i.i.i, i64 0, i32 1, i64 15
  %_13.sroa.4.0..sroa_cast.i.i = bitcast i8* %_13.sroa.4.0..sroa_idx.i.i to i64**
  store i64* inttoptr (i64 8 to i64*), i64** %_13.sroa.4.0..sroa_cast.i.i, align 8, !noalias !199
  %_13.sroa.5.0..sroa_idx.i.i = getelementptr inbounds %"core::result::Result<stellar_xdr::next::generated::ScVal, raw_val::ConversionError>", %"core::result::Result<stellar_xdr::next::generated::ScVal, raw_val::ConversionError>"* %_23.i.i.i, i64 0, i32 1, i64 23
  %_13.sroa.5.0..sroa_cast.i.i = bitcast i8* %_13.sroa.5.0..sroa_idx.i.i to i64*
  store i64 0, i64* %_13.sroa.5.0..sroa_cast.i.i, align 8, !noalias !199
  store i8 0, i8* %74, align 8, !alias.scope !200, !noalias !203
  call fastcc void @"_ZN5alloc3vec16Vec$LT$T$C$A$GT$4push17h45b3f45b4f341b46E"(%"alloc::vec::Vec<alloc::rc::Rc<dyn soroban_env_verification::host::ContractFunctionSet>>"* noalias noundef nonnull align 8 dereferenceable(24) %73, %"core::result::Result<stellar_xdr::next::generated::ScVal, raw_val::ConversionError>"* noalias nocapture noundef nonnull dereferenceable(40) %_23.i.i.i) #23, !noalias !186
  call void @llvm.lifetime.end.p0i8(i64 40, i8* nonnull %74) #23, !noalias !186
  %75 = load i64, i64* %_4.i.i.i.i.i20, align 8, !noalias !205
  %_6.i.i.i7.i.i.i = add i64 %75, 1
  store i64 %_6.i.i.i7.i.i.i, i64* %_4.i.i.i.i.i20, align 8, !alias.scope !208, !noalias !205
  %major1.i.i.i.i.i.i = shl nuw i64 %67, 32
  %_11.i.i.i.i.i.i.i = or i64 %major1.i.i.i.i.i.i, 7
  %76 = bitcast { i64, i64* }* %args.i.i.i.i to i8*
  call void @llvm.lifetime.start.p0i8(i64 16, i8* nonnull %76) #23, !noalias !211
  %77 = getelementptr inbounds { i64, i64* }, { i64, i64* }* %args.i.i.i.i, i64 0, i32 0
  store i64 %_11.i.i.i.i.i.i.i, i64* %77, align 8, !noalias !216
  %78 = getelementptr inbounds { i64, i64* }, { i64, i64* }* %args.i.i.i.i, i64 0, i32 1
  store i64* %56, i64** %78, align 8, !noalias !216
  %79 = load i64, i64* %59, align 8, !alias.scope !220, !noalias !225
  tail call void @llvm.experimental.noalias.scope.decl(metadata !226)
  tail call void @llvm.experimental.noalias.scope.decl(metadata !229) #23
  %80 = bitcast i64* %f.i.i to i8*
  call void @llvm.lifetime.start.p0i8(i64 8, i8* nonnull %80) #23, !noalias !226
  store i64 210799325656829849, i64* %f.i.i, align 8, !noalias !232
  %81 = getelementptr inbounds [32 x i8], [32 x i8]* %id_32_bytes.i.i, i64 0, i64 0
  call void @llvm.lifetime.start.p0i8(i64 32, i8* nonnull %81) #23, !noalias !232
  %_8.i.i.sroa.9.0.sroa_idx = getelementptr inbounds [24 x i8], [24 x i8]* %_8.i.i.sroa.9, i64 0, i64 0
  call void @llvm.lifetime.start.p0i8(i64 24, i8* nonnull %_8.i.i.sroa.9.0.sroa_idx)
  tail call void @llvm.experimental.noalias.scope.decl(metadata !233) #23
  %82 = and i64 %79, 4294967295
  %83 = icmp eq i64 %82, 103
  br i1 %83, label %bb4.i.i.i, label %bb1.i.i.i25

bb4.i.i.i:                                        ; preds = %"_ZN70_$LT$soroban_sdk..env..Env$u20$as$u20$soroban_env_common..env..Env$GT$7vec_new17h6ccb0fa626a7a4faE.exit"
  %_17.i.i.i = call fastcc i64 @"_ZN85_$LT$soroban_env_verification..host..Host$u20$as$u20$soroban_env_common..env..Env$GT$9bytes_len17h8caf1757f9e4bd67E"(i64** noalias noundef nonnull readonly align 8 dereferenceable(8) %58, i64 %79) #23, !noalias !236
  %84 = lshr i64 %_17.i.i.i, 4
  %85 = trunc i64 %84 to i32
  %_25.not.i.i.i = icmp eq i32 %85, 32
  br i1 %_25.not.i.i.i, label %bb16.i.i.i, label %bb1.i.i.i25

bb16.i.i.i:                                       ; preds = %bb4.i.i.i
  %arr.i.i.i.sroa.0.0.sroa_idx85 = getelementptr inbounds [7 x i8], [7 x i8]* %arr.i.i.i.sroa.0, i64 0, i64 0
  call void @llvm.lifetime.start.p0i8(i64 7, i8* nonnull %arr.i.i.i.sroa.0.0.sroa_idx85)
  %arr.i.i.i.sroa.6.0.sroa_idx79 = getelementptr inbounds [17 x i8], [17 x i8]* %arr.i.i.i.sroa.6, i64 0, i64 0
  call void @llvm.lifetime.start.p0i8(i64 17, i8* nonnull %arr.i.i.i.sroa.6.0.sroa_idx79)
  call void @llvm.memset.p0i8.i64(i8* noundef nonnull align 1 dereferenceable(17) %arr.i.i.i.sroa.6.0.sroa_idx79, i8 0, i64 17, i1 false), !noalias !239
  tail call void @llvm.experimental.noalias.scope.decl(metadata !240) #23
  tail call void @llvm.experimental.noalias.scope.decl(metadata !243) #23
  tail call void @llvm.experimental.noalias.scope.decl(metadata !246) #23
  %86 = bitcast i64** %58 to %"alloc::rc::RcBox<soroban_env_verification::host::HostImpl>"**
  %_31.i.i.i.i.i.i.i.i.i = load %"alloc::rc::RcBox<soroban_env_verification::host::HostImpl>"*, %"alloc::rc::RcBox<soroban_env_verification::host::HostImpl>"** %86, align 8, !alias.scope !249, !noalias !256, !nonnull !123
  %_5.i.i.i.i.i.i = getelementptr inbounds %"alloc::rc::RcBox<soroban_env_verification::host::HostImpl>", %"alloc::rc::RcBox<soroban_env_verification::host::HostImpl>"* %_31.i.i.i.i.i.i.i.i.i, i64 0, i32 2, i32 1
  %87 = tail call fastcc { i64*, i64* } @"_ZN4core4cell16RefCell$LT$T$GT$6borrow17h6c19580b56ec9794E"(%"core::cell::RefCell<alloc::vec::Vec<alloc::rc::Rc<dyn soroban_env_verification::host::ContractFunctionSet>>>"* noundef nonnull align 8 %_5.i.i.i.i.i.i) #23, !noalias !260
  %.fca.0.extract.i.i.i.i.i.i = extractvalue { i64*, i64* } %87, 0
  %.fca.1.extract.i.i.i.i.i.i = extractvalue { i64*, i64* } %87, 1
  %88 = lshr i64 %79, 32
  %89 = icmp ne i64* %.fca.0.extract.i.i.i.i.i.i, null
  tail call void @llvm.assume(i1 %89) #23
  %90 = getelementptr inbounds i64, i64* %.fca.0.extract.i.i.i.i.i.i, i64 1
  %91 = bitcast i64* %90 to [0 x %"core::result::Result<stellar_xdr::next::generated::ScVal, raw_val::ConversionError>"]**
  %_21.i.i1.i.i.i.i.i.i.i = load [0 x %"core::result::Result<stellar_xdr::next::generated::ScVal, raw_val::ConversionError>"]*, [0 x %"core::result::Result<stellar_xdr::next::generated::ScVal, raw_val::ConversionError>"]** %91, align 8, !alias.scope !261, !noalias !260, !nonnull !123
  %92 = getelementptr inbounds i64, i64* %.fca.0.extract.i.i.i.i.i.i, i64 2
  %_4.i.i.i.i.i.i.i23 = load i64, i64* %92, align 8, !alias.scope !268, !noalias !260
  %_3.i.i.i.i.i.i.i.i = icmp ult i64 %88, %_4.i.i.i.i.i.i.i23
  %93 = getelementptr inbounds [0 x %"core::result::Result<stellar_xdr::next::generated::ScVal, raw_val::ConversionError>"], [0 x %"core::result::Result<stellar_xdr::next::generated::ScVal, raw_val::ConversionError>"]* %_21.i.i1.i.i.i.i.i.i.i, i64 0, i64 %88
  %94 = bitcast %"core::result::Result<stellar_xdr::next::generated::ScVal, raw_val::ConversionError>"* %93 to i64*
  %.0.i.i.i.i.i.i.i.i = select i1 %_3.i.i.i.i.i.i.i.i, i64* %94, i64* null
  tail call void @llvm.experimental.noalias.scope.decl(metadata !269) #23
  br i1 %_3.i.i.i.i.i.i.i.i, label %bb1.i.i.i.i.i.i.i24, label %bb3.i.i.i.i.i.i.i

bb3.i.i.i.i.i.i.i:                                ; preds = %bb16.i.i.i
  tail call void @llvm.trap() #23, !noalias !272
  unreachable

bb1.i.i.i.i.i.i.i24:                              ; preds = %bb16.i.i.i
  %95 = bitcast i64* %.0.i.i.i.i.i.i.i.i to i8*
  %96 = load i8, i8* %95, align 8, !range !274, !alias.scope !275, !noalias !278, !noundef !123
  %97 = icmp eq i8 %96, 6
  br i1 %97, label %bb5.i.i.i.i.i.i.i, label %bb7.i.i.i.i.i.i.i

bb7.i.i.i.i.i.i.i:                                ; preds = %bb1.i.i.i.i.i.i.i24
  tail call void @llvm.trap() #23, !noalias !272
  unreachable

bb5.i.i.i.i.i.i.i:                                ; preds = %bb1.i.i.i.i.i.i.i24
  tail call void @llvm.experimental.noalias.scope.decl(metadata !279) #23
  %98 = getelementptr inbounds i64, i64* %.0.i.i.i.i.i.i.i.i, i64 3
  %_4.i.i.i.i.i.i.i.i.i.i = load i64, i64* %98, align 8, !alias.scope !282, !noalias !287
  %_9.i.i.i.i.i.i.i.i.i.i = icmp ult i64 %_4.i.i.i.i.i.i.i.i.i.i, 32
  br i1 %_9.i.i.i.i.i.i.i.i.i.i, label %bb3.i.i.i.i.i.i.i.i.i.i, label %"_ZN4core6result19Result$LT$T$C$E$GT$14unwrap_or_else17h9ff7cc40ff0c4231E.exit.i.i"

bb3.i.i.i.i.i.i.i.i.i.i:                          ; preds = %bb5.i.i.i.i.i.i.i
  tail call void @llvm.trap() #23, !noalias !289
  unreachable

bb1.i.i.i25:                                      ; preds = %bb4.i.i.i, %"_ZN70_$LT$soroban_sdk..env..Env$u20$as$u20$soroban_env_common..env..Env$GT$7vec_new17h6ccb0fa626a7a4faE.exit"
  tail call void @llvm.trap() #23, !noalias !294
  unreachable

"_ZN4core6result19Result$LT$T$C$E$GT$14unwrap_or_else17h9ff7cc40ff0c4231E.exit.i.i": ; preds = %bb5.i.i.i.i.i.i.i
  %99 = getelementptr inbounds i64, i64* %.0.i.i.i.i.i.i.i.i, i64 2
  %100 = bitcast i64* %99 to [0 x i8]**
  %_2.i.i1.i.i.i.i.i.i1.i.i.i.i = load [0 x i8]*, [0 x i8]** %100, align 8, !alias.scope !298, !noalias !287, !nonnull !123
  %arr.i.i.i.sroa.0.0..sroa_idx = getelementptr inbounds [0 x i8], [0 x i8]* %_2.i.i1.i.i.i.i.i.i1.i.i.i.i, i64 0, i64 0
  call void @llvm.memcpy.p0i8.p0i8.i64(i8* noundef nonnull align 1 dereferenceable(7) %arr.i.i.i.sroa.0.0.sroa_idx85, i8* noundef nonnull align 1 dereferenceable(7) %arr.i.i.i.sroa.0.0..sroa_idx, i64 7, i1 false), !alias.scope !303, !noalias !307
  %arr.i.i.i.sroa.5.0..sroa_idx = getelementptr inbounds [0 x i8], [0 x i8]* %_2.i.i1.i.i.i.i.i.i1.i.i.i.i, i64 0, i64 7
  %arr.i.i.i.sroa.5.0..sroa_cast = bitcast i8* %arr.i.i.i.sroa.5.0..sroa_idx to i64*
  %arr.i.i.i.sroa.5.0.copyload = load i64, i64* %arr.i.i.i.sroa.5.0..sroa_cast, align 1, !alias.scope !303, !noalias !307
  %arr.i.i.i.sroa.6.0..sroa_idx = getelementptr inbounds [0 x i8], [0 x i8]* %_2.i.i1.i.i.i.i.i.i1.i.i.i.i, i64 0, i64 15
  call void @llvm.memcpy.p0i8.p0i8.i64(i8* noundef nonnull align 1 dereferenceable(17) %arr.i.i.i.sroa.6.0.sroa_idx79, i8* noundef nonnull align 1 dereferenceable(17) %arr.i.i.i.sroa.6.0..sroa_idx, i64 17, i1 false), !alias.scope !303, !noalias !307
  %101 = icmp ne i64* %.fca.1.extract.i.i.i.i.i.i, null
  tail call void @llvm.assume(i1 %101) #23
  %102 = load i64, i64* %.fca.1.extract.i.i.i.i.i.i, align 8, !noalias !308
  %_6.i.i.i.i.i.i.i.i.i = add i64 %102, -1
  store i64 %_6.i.i.i.i.i.i.i.i.i, i64* %.fca.1.extract.i.i.i.i.i.i, align 8, !alias.scope !311, !noalias !308
  %id_32_bytes.i.i9899 = getelementptr inbounds [32 x i8], [32 x i8]* %id_32_bytes.i.i, i64 0, i64 0
  call void @llvm.memcpy.p0i8.p0i8.i64(i8* noundef nonnull align 1 dereferenceable(7) %id_32_bytes.i.i9899, i8* noundef nonnull align 1 dereferenceable(7) %arr.i.i.i.sroa.0.0.sroa_idx85, i64 7, i1 false), !noalias !232
  call void @llvm.memcpy.p0i8.p0i8.i64(i8* noundef nonnull align 8 dereferenceable(17) %_8.i.i.sroa.9.0.sroa_idx, i8* noundef nonnull align 1 dereferenceable(17) %arr.i.i.i.sroa.6.0.sroa_idx79, i64 17, i1 false), !noalias !314
  call void @llvm.lifetime.end.p0i8(i64 7, i8* nonnull %arr.i.i.i.sroa.0.0.sroa_idx85)
  call void @llvm.lifetime.end.p0i8(i64 17, i8* nonnull %arr.i.i.i.sroa.6.0.sroa_idx79)
  tail call void @llvm.experimental.noalias.scope.decl(metadata !315) #23
  tail call void @llvm.experimental.noalias.scope.decl(metadata !316) #23
  %_8.i.i.sroa.7.1..sroa_idx = getelementptr inbounds [32 x i8], [32 x i8]* %id_32_bytes.i.i, i64 0, i64 7
  %_8.i.i.sroa.7.1..sroa_cast = bitcast i8* %_8.i.i.sroa.7.1..sroa_idx to i64*
  store i64 %arr.i.i.i.sroa.5.0.copyload, i64* %_8.i.i.sroa.7.1..sroa_cast, align 1, !alias.scope !317, !noalias !232
  %_8.i.i.sroa.9.1..sroa_idx = getelementptr inbounds [32 x i8], [32 x i8]* %id_32_bytes.i.i, i64 0, i64 15
  call void @llvm.memcpy.p0i8.p0i8.i64(i8* noundef nonnull align 1 dereferenceable(17) %_8.i.i.sroa.9.1..sroa_idx, i8* noundef nonnull align 8 dereferenceable(17) %_8.i.i.sroa.9.0.sroa_idx, i64 17, i1 false), !alias.scope !317, !noalias !232
  call void @llvm.lifetime.end.p0i8(i64 24, i8* nonnull %_8.i.i.sroa.9.0.sroa_idx)
  br label %bb5.i.i

bb5.i.i:                                          ; preds = %bb10.i.i, %"_ZN4core6result19Result$LT$T$C$E$GT$14unwrap_or_else17h9ff7cc40ff0c4231E.exit.i.i"
  %iter.sroa.0.0.i.i = phi i64 [ 0, %"_ZN4core6result19Result$LT$T$C$E$GT$14unwrap_or_else17h9ff7cc40ff0c4231E.exit.i.i" ], [ %113, %bb10.i.i ]
  %exitcond.not.i.i = icmp eq i64 %iter.sroa.0.0.i.i, 23
  br i1 %exitcond.not.i.i, label %bb9.i.i, label %bb10.i.i

bb9.i.i:                                          ; preds = %bb5.i.i
  %103 = getelementptr inbounds [32 x i8], [32 x i8]* %id_32_bytes.i.i, i64 0, i64 24
  %104 = bitcast i8* %103 to i64*
  %105 = load i64, i64* %104, align 1
  %106 = tail call i64 @llvm.bswap.i64(i64 %105) #23
  %_42.i.i = getelementptr inbounds %"alloc::rc::RcBox<soroban_env_verification::host::HostImpl>", %"alloc::rc::RcBox<soroban_env_verification::host::HostImpl>"* %_31.i.i.i.i.i.i.i.i.i, i64 0, i32 2, i32 0
  %107 = tail call fastcc { i64*, i64* } @"_ZN4core4cell16RefCell$LT$T$GT$6borrow17h6c19580b56ec9794E"(%"core::cell::RefCell<alloc::vec::Vec<alloc::rc::Rc<dyn soroban_env_verification::host::ContractFunctionSet>>>"* noundef nonnull align 8 %_42.i.i) #23, !noalias !232
  %.fca.0.extract9.i.i = extractvalue { i64*, i64* } %107, 0
  %.fca.1.extract10.i.i = extractvalue { i64*, i64* } %107, 1
  %108 = icmp ne i64* %.fca.0.extract9.i.i, null
  tail call void @llvm.assume(i1 %108) #23
  %109 = getelementptr inbounds i64, i64* %.fca.0.extract9.i.i, i64 2
  %110 = load i64, i64* %109, align 8, !alias.scope !318, !noalias !232
  %_36.i.i = icmp ult i64 %110, %106
  %111 = icmp ne i64* %.fca.1.extract10.i.i, null
  tail call void @llvm.assume(i1 %111) #23
  %112 = load i64, i64* %.fca.1.extract10.i.i, align 8, !noalias !321
  %_6.i.i.i.i.i = add i64 %112, -1
  store i64 %_6.i.i.i.i.i, i64* %.fca.1.extract10.i.i, align 8, !alias.scope !324, !noalias !321
  br i1 %_36.i.i, label %bb21.i.i, label %bb22.i.i

bb10.i.i:                                         ; preds = %bb5.i.i
  %113 = add nuw nsw i64 %iter.sroa.0.0.i.i, 1
  %114 = getelementptr inbounds [32 x i8], [32 x i8]* %id_32_bytes.i.i, i64 0, i64 %iter.sroa.0.0.i.i
  %_20.i.i = load i8, i8* %114, align 1, !noalias !232
  %115 = icmp eq i8 %_20.i.i, 0
  br i1 %115, label %bb5.i.i, label %bb11.i.i

bb11.i.i:                                         ; preds = %bb10.i.i
  tail call void @llvm.trap() #23, !noalias !232
  unreachable

bb22.i.i:                                         ; preds = %bb9.i.i
  %_31.i.i.i15.i.i = load %"alloc::rc::RcBox<soroban_env_verification::host::HostImpl>"*, %"alloc::rc::RcBox<soroban_env_verification::host::HostImpl>"** %86, align 8, !alias.scope !327, !nonnull !123
  %_48.i.i = getelementptr inbounds %"alloc::rc::RcBox<soroban_env_verification::host::HostImpl>", %"alloc::rc::RcBox<soroban_env_verification::host::HostImpl>"* %_31.i.i.i15.i.i, i64 0, i32 2, i32 0
  %116 = tail call fastcc { i64*, i64* } @"_ZN4core4cell16RefCell$LT$T$GT$6borrow17h6c19580b56ec9794E"(%"core::cell::RefCell<alloc::vec::Vec<alloc::rc::Rc<dyn soroban_env_verification::host::ContractFunctionSet>>>"* noundef nonnull align 8 %_48.i.i) #23, !noalias !232
  %.fca.0.extract11.i.i = extractvalue { i64*, i64* } %116, 0
  %.fca.1.extract13.i.i = extractvalue { i64*, i64* } %116, 1
  %117 = icmp ne i64* %.fca.0.extract11.i.i, null
  tail call void @llvm.assume(i1 %117) #23
  %118 = getelementptr inbounds i64, i64* %.fca.0.extract11.i.i, i64 2
  %_4.i.i.i26 = load i64, i64* %118, align 8, !alias.scope !334, !noalias !232
  %_3.i.i17.i.i = icmp ult i64 %106, %_4.i.i.i26
  br i1 %_3.i.i17.i.i, label %"_ZN4core6option15Option$LT$T$GT$14unwrap_or_else17h46d00035a2286929E.exit.i.i", label %bb1.i18.i.i

bb1.i18.i.i:                                      ; preds = %bb22.i.i
  tail call void @llvm.trap() #23, !noalias !337
  unreachable

"_ZN4core6option15Option$LT$T$GT$14unwrap_or_else17h46d00035a2286929E.exit.i.i": ; preds = %bb22.i.i
  %119 = getelementptr inbounds i64, i64* %.fca.0.extract11.i.i, i64 1
  %120 = bitcast i64* %119 to [0 x { i64*, i64* }]**
  %_21.i.i1.i.i.i = load [0 x { i64*, i64* }]*, [0 x { i64*, i64* }]** %120, align 8, !alias.scope !340, !noalias !232, !nonnull !123
  %121 = getelementptr inbounds [0 x { i64*, i64* }], [0 x { i64*, i64* }]* %_21.i.i1.i.i.i, i64 0, i64 %106
  tail call void @llvm.experimental.noalias.scope.decl(metadata !345) #23
  %122 = bitcast { i64*, i64* }* %121 to i8**
  %_3.01.i.i1.i.i.i = load i8*, i8** %122, align 8, !alias.scope !348, !noalias !232, !nonnull !123
  %123 = getelementptr inbounds [0 x { i64*, i64* }], [0 x { i64*, i64* }]* %_21.i.i1.i.i.i, i64 0, i64 %106, i32 1
  %124 = bitcast i64** %123 to [3 x i64]**
  %_3.12.i.i.i.i.i = load [3 x i64]*, [3 x i64]** %124, align 8, !alias.scope !348, !noalias !232, !nonnull !123, !align !353
  %125 = getelementptr inbounds [3 x i64], [3 x i64]* %_3.12.i.i.i.i.i, i64 0, i64 2
  %126 = load i64, i64* %125, align 8, !range !354, !invariant.load !123, !noalias !355
  %127 = add i64 %126, 15
  %128 = and i64 %127, -16
  %129 = getelementptr i8, i8* %_3.01.i.i1.i.i.i, i64 %128
  %130 = bitcast i8* %129 to {}*
  %131 = getelementptr inbounds [3 x i64], [3 x i64]* %_3.12.i.i.i.i.i, i64 0, i64 3
  %132 = bitcast i64* %131 to { i64, i64 } ({}*, i64*, i64**, [0 x i64]*, i64)**
  %133 = load { i64, i64 } ({}*, i64*, i64**, [0 x i64]*, i64)*, { i64, i64 } ({}*, i64*, i64**, [0 x i64]*, i64)** %132, align 8, !invariant.load !123, !noalias !232, !nonnull !123
  %134 = call { i64, i64 } %133({}* noundef align 1 %130, i64* noalias noundef nonnull readonly align 8 dereferenceable(8) %f.i.i, i64** noalias noundef nonnull readonly align 8 dereferenceable(8) %58, [0 x i64]* noalias noundef nonnull readonly align 8 bitcast (<{}>* @alloc433 to [0 x i64]*), i64 0) #23
  %_61.0.i.i = extractvalue { i64, i64 } %134, 0
  %switch.i.i.i = icmp eq i64 %_61.0.i.i, 0
  br i1 %switch.i.i.i, label %bb1.i19.i.i, label %"_ZN70_$LT$soroban_sdk..env..Env$u20$as$u20$soroban_env_common..env..Env$GT$4call17h37225bdd2af163ffE.exit"

bb1.i19.i.i:                                      ; preds = %"_ZN4core6option15Option$LT$T$GT$14unwrap_or_else17h46d00035a2286929E.exit.i.i"
  call void @llvm.trap() #23
  unreachable

bb21.i.i:                                         ; preds = %bb9.i.i
  tail call void @llvm.trap() #23, !noalias !232
  unreachable

"_ZN70_$LT$soroban_sdk..env..Env$u20$as$u20$soroban_env_common..env..Env$GT$4call17h37225bdd2af163ffE.exit": ; preds = %"_ZN4core6option15Option$LT$T$GT$14unwrap_or_else17h46d00035a2286929E.exit.i.i"
  %_61.1.i.i = extractvalue { i64, i64 } %134, 1
  %135 = icmp ne i64* %.fca.1.extract13.i.i, null
  call void @llvm.assume(i1 %135) #23
  %136 = load i64, i64* %.fca.1.extract13.i.i, align 8, !noalias !356
  %_6.i.i.i21.i.i = add i64 %136, -1
  store i64 %_6.i.i.i21.i.i, i64* %.fca.1.extract13.i.i, align 8, !alias.scope !359, !noalias !356
  call void @llvm.lifetime.end.p0i8(i64 32, i8* nonnull %81) #23, !noalias !232
  call void @llvm.lifetime.end.p0i8(i64 8, i8* nonnull %80) #23, !noalias !226
  %137 = and i64 %_61.1.i.i, 15
  %138 = icmp eq i64 %137, 1
  br i1 %138, label %_ZN19nostd_test_contract23IncrementContractClient9increment17h1945216473bb337eE.exit, label %bb1.i.i.i.i.i

bb1.i.i.i.i.i:                                    ; preds = %"_ZN70_$LT$soroban_sdk..env..Env$u20$as$u20$soroban_env_common..env..Env$GT$4call17h37225bdd2af163ffE.exit"
  call void @llvm.trap() #23
  unreachable

_ZN19nostd_test_contract23IncrementContractClient9increment17h1945216473bb337eE.exit: ; preds = %"_ZN70_$LT$soroban_sdk..env..Env$u20$as$u20$soroban_env_common..env..Env$GT$4call17h37225bdd2af163ffE.exit"
  %139 = lshr i64 %_61.1.i.i, 4
  %140 = trunc i64 %139 to i32
  call fastcc void @"_ZN64_$LT$alloc..rc..Rc$LT$T$GT$$u20$as$u20$core..ops..drop..Drop$GT$4drop17h830fc5bba9825715E"(i64** noalias noundef nonnull align 8 dereferenceable(8) %78) #23
  call void @llvm.lifetime.end.p0i8(i64 16, i8* nonnull %76) #23, !noalias !211
  %_16 = icmp eq i32 %0, %140
  br i1 %_16, label %_ZN13seahorn_stubs6assert17hc97a46eee42da618E.exit, label %bb1.i

bb1.i:                                            ; preds = %_ZN19nostd_test_contract23IncrementContractClient9increment17h1945216473bb337eE.exit
  call fastcc void @_ZN13seahorn_stubs5error17hdf0d011bda4f2b51E() #24
  unreachable

_ZN13seahorn_stubs6assert17hc97a46eee42da618E.exit: ; preds = %_ZN19nostd_test_contract23IncrementContractClient9increment17h1945216473bb337eE.exit
  call fastcc void @"_ZN64_$LT$alloc..rc..Rc$LT$T$GT$$u20$as$u20$core..ops..drop..Drop$GT$4drop17h830fc5bba9825715E"(i64** noalias noundef nonnull align 8 dereferenceable(8) %58) #23
  call fastcc void @"_ZN64_$LT$alloc..rc..Rc$LT$T$GT$$u20$as$u20$core..ops..drop..Drop$GT$4drop17h830fc5bba9825715E"(i64** noalias noundef nonnull align 8 dereferenceable(8) %60) #23
  call void @llvm.lifetime.end.p0i8(i64 24, i8* nonnull %53)
  call fastcc void @"_ZN64_$LT$alloc..rc..Rc$LT$T$GT$$u20$as$u20$core..ops..drop..Drop$GT$4drop17h830fc5bba9825715E"(i64** noalias noundef nonnull align 8 dereferenceable(8) %.fca.1.gep) #23
  call void @llvm.lifetime.end.p0i8(i64 16, i8* nonnull %4)
  call fastcc void @"_ZN64_$LT$alloc..rc..Rc$LT$T$GT$$u20$as$u20$core..ops..drop..Drop$GT$4drop17h830fc5bba9825715E"(i64** noalias noundef nonnull align 8 dereferenceable(8) %e) #23
  call void @llvm.lifetime.end.p0i8(i64 8, i8* nonnull %1)
  ret i32 %0
}

; Function Attrs: minsize nounwind nonlazybind optsize
declare i32 @__VERIFIER_nondet_u32() unnamed_addr #0

; Function Attrs: argmemonly nofree nosync nounwind willreturn
declare void @llvm.lifetime.start.p0i8(i64 immarg, i8* nocapture) #1

; Function Attrs: inaccessiblememonly minsize mustprogress nofree nounwind nonlazybind optsize willreturn
declare noalias noundef i8* @malloc(i64 noundef) unnamed_addr #2

; Function Attrs: cold noreturn nounwind
declare void @llvm.trap() #3

; Function Attrs: argmemonly nofree nounwind willreturn writeonly
declare void @llvm.memset.p0i8.i64(i8* nocapture writeonly, i8, i64, i1 immarg) #4

; Function Attrs: minsize noinline nounwind nonlazybind optsize
define internal fastcc void @"_ZN5alloc7raw_vec19RawVec$LT$T$C$A$GT$16reserve_for_push17h6f5ebe96b2275d17E"({ i64, i64* }* noalias nocapture noundef align 8 dereferenceable(16) %self, i64 %len) unnamed_addr #5 {
start:
  %_30.i = alloca %"core::option::Option<(core::ptr::non_null::NonNull<u8>, core::alloc::layout::Layout)>", align 8
  %_28.i = alloca %"core::result::Result<core::ptr::non_null::NonNull<[u8]>, collections::TryReserveError>", align 8
  tail call void @llvm.experimental.noalias.scope.decl(metadata !362)
  %0 = tail call { i64, i1 } @llvm.uadd.with.overflow.i64(i64 %len, i64 1) #23
  %1 = extractvalue { i64, i1 } %0, 0
  %2 = extractvalue { i64, i1 } %0, 1
  br i1 %2, label %bb5.i, label %bb7.i

bb7.i:                                            ; preds = %start
  %3 = getelementptr inbounds { i64, i64* }, { i64, i64* }* %self, i64 0, i32 0
  %_20.i = load i64, i64* %3, align 8, !alias.scope !362
  %_19.i = shl i64 %_20.i, 1
  %4 = icmp ugt i64 %_19.i, %1
  %.0.sroa.speculated.i.i.i = select i1 %4, i64 %_19.i, i64 %1
  %5 = icmp ugt i64 %.0.sroa.speculated.i.i.i, 4
  %.0.sroa.speculated.i.i10.i = select i1 %5, i64 %.0.sroa.speculated.i.i.i, i64 4
  %_6.i.i.i = icmp ugt i64 %.0.sroa.speculated.i.i10.i, 576460752303423487
  %array_size.i.i.i = shl i64 %.0.sroa.speculated.i.i10.i, 4
  %spec.select.i.i.i = select i1 %_6.i.i.i, i64 0, i64 8
  %spec.select1.i.i.i = select i1 %_6.i.i.i, i64 undef, i64 %array_size.i.i.i
  %6 = bitcast %"core::result::Result<core::ptr::non_null::NonNull<[u8]>, collections::TryReserveError>"* %_28.i to i8*
  call void @llvm.lifetime.start.p0i8(i64 24, i8* nonnull %6) #23, !noalias !362
  %7 = bitcast %"core::option::Option<(core::ptr::non_null::NonNull<u8>, core::alloc::layout::Layout)>"* %_30.i to i8*
  call void @llvm.lifetime.start.p0i8(i64 24, i8* nonnull %7) #23, !noalias !362
  tail call void @llvm.experimental.noalias.scope.decl(metadata !365) #23
  tail call void @llvm.experimental.noalias.scope.decl(metadata !368) #23
  %_3.i.i = icmp eq i64 %_20.i, 0
  br i1 %_3.i.i, label %"_ZN5alloc7raw_vec19RawVec$LT$T$C$A$GT$14current_memory17hd30c9307677a332fE.exit.i", label %bb5.i.i

bb5.i.i:                                          ; preds = %bb7.i
  %_6.i.i.i.i = icmp ult i64 %_20.i, 576460752303423488
  %array_size.i.i.i.i = shl nuw nsw i64 %_20.i, 4
  tail call void @llvm.assume(i1 %_6.i.i.i.i) #23
  %8 = getelementptr inbounds { i64, i64* }, { i64, i64* }* %self, i64 0, i32 1
  %9 = bitcast i64** %8 to i8**
  %_116.i.i = load i8*, i8** %9, align 8, !alias.scope !370, !noalias !365, !nonnull !123
  %_8.sroa.0.0..sroa_idx.i.i = bitcast %"core::option::Option<(core::ptr::non_null::NonNull<u8>, core::alloc::layout::Layout)>"* %_30.i to i8**
  store i8* %_116.i.i, i8** %_8.sroa.0.0..sroa_idx.i.i, align 8, !alias.scope !365, !noalias !370
  %10 = getelementptr inbounds %"core::option::Option<(core::ptr::non_null::NonNull<u8>, core::alloc::layout::Layout)>", %"core::option::Option<(core::ptr::non_null::NonNull<u8>, core::alloc::layout::Layout)>"* %_30.i, i64 0, i32 0, i64 1
  store i64 %array_size.i.i.i.i, i64* %10, align 8, !alias.scope !365, !noalias !370
  br label %"_ZN5alloc7raw_vec19RawVec$LT$T$C$A$GT$14current_memory17hd30c9307677a332fE.exit.i"

"_ZN5alloc7raw_vec19RawVec$LT$T$C$A$GT$14current_memory17hd30c9307677a332fE.exit.i": ; preds = %bb5.i.i, %bb7.i
  %.sink.i.i = phi i64 [ 8, %bb5.i.i ], [ 0, %bb7.i ]
  %11 = getelementptr inbounds %"core::option::Option<(core::ptr::non_null::NonNull<u8>, core::alloc::layout::Layout)>", %"core::option::Option<(core::ptr::non_null::NonNull<u8>, core::alloc::layout::Layout)>"* %_30.i, i64 0, i32 1
  store i64 %.sink.i.i, i64* %11, align 8, !alias.scope !365, !noalias !370
  call fastcc void @_ZN5alloc7raw_vec11finish_grow17h94af1062a405315aE(%"core::result::Result<core::ptr::non_null::NonNull<[u8]>, collections::TryReserveError>"* noalias nocapture noundef nonnull dereferenceable(24) %_28.i, i64 %spec.select1.i.i.i, i64 noundef %spec.select.i.i.i, %"core::option::Option<(core::ptr::non_null::NonNull<u8>, core::alloc::layout::Layout)>"* noalias nocapture noundef nonnull readonly dereferenceable(24) %_30.i) #23, !noalias !362
  call void @llvm.lifetime.end.p0i8(i64 24, i8* nonnull %7) #23, !noalias !362
  %12 = getelementptr inbounds %"core::result::Result<core::ptr::non_null::NonNull<[u8]>, collections::TryReserveError>", %"core::result::Result<core::ptr::non_null::NonNull<[u8]>, collections::TryReserveError>"* %_28.i, i64 0, i32 0
  %_2.i.i = load i64, i64* %12, align 8, !range !371, !alias.scope !372, !noalias !375, !noundef !123
  %trunc.not.i.i = icmp eq i64 %_2.i.i, 0
  br i1 %trunc.not.i.i, label %"_ZN5alloc7raw_vec19RawVec$LT$T$C$A$GT$14grow_amortized17hecb74f28a7b7355dE.exit.thread", label %"_ZN5alloc7raw_vec19RawVec$LT$T$C$A$GT$14grow_amortized17hecb74f28a7b7355dE.exit"

"_ZN5alloc7raw_vec19RawVec$LT$T$C$A$GT$14grow_amortized17hecb74f28a7b7355dE.exit.thread": ; preds = %"_ZN5alloc7raw_vec19RawVec$LT$T$C$A$GT$14current_memory17hd30c9307677a332fE.exit.i"
  %13 = getelementptr inbounds %"core::result::Result<core::ptr::non_null::NonNull<[u8]>, collections::TryReserveError>", %"core::result::Result<core::ptr::non_null::NonNull<[u8]>, collections::TryReserveError>"* %_28.i, i64 0, i32 1
  %14 = bitcast [2 x i64]* %13 to i8**
  %v.0.i33.i = load i8*, i8** %14, align 8, !alias.scope !372, !noalias !375, !nonnull !123
  call void @llvm.lifetime.end.p0i8(i64 24, i8* nonnull %6) #23, !noalias !362
  %15 = getelementptr inbounds { i64, i64* }, { i64, i64* }* %self, i64 0, i32 1
  %16 = bitcast i64** %15 to i8**
  store i8* %v.0.i33.i, i8** %16, align 8, !alias.scope !377
  store i64 %.0.sroa.speculated.i.i10.i, i64* %3, align 8, !alias.scope !377
  br label %_ZN5alloc7raw_vec14handle_reserve17h0ec43d4a9324f3feE.122.exit

"_ZN5alloc7raw_vec19RawVec$LT$T$C$A$GT$14grow_amortized17hecb74f28a7b7355dE.exit": ; preds = %"_ZN5alloc7raw_vec19RawVec$LT$T$C$A$GT$14current_memory17hd30c9307677a332fE.exit.i"
  %17 = getelementptr inbounds %"core::result::Result<core::ptr::non_null::NonNull<[u8]>, collections::TryReserveError>", %"core::result::Result<core::ptr::non_null::NonNull<[u8]>, collections::TryReserveError>"* %_28.i, i64 0, i32 1, i64 1
  %e.1.i.i = load i64, i64* %17, align 8, !range !380, !alias.scope !372, !noalias !375, !noundef !123
  call void @llvm.lifetime.end.p0i8(i64 24, i8* nonnull %6) #23, !noalias !362
  switch i64 %e.1.i.i, label %bb6.i [
    i64 -9223372036854775807, label %_ZN5alloc7raw_vec14handle_reserve17h0ec43d4a9324f3feE.122.exit
    i64 0, label %bb5.i
  ]

bb5.i:                                            ; preds = %"_ZN5alloc7raw_vec19RawVec$LT$T$C$A$GT$14grow_amortized17hecb74f28a7b7355dE.exit", %start
  tail call void @llvm.trap() #23
  unreachable

bb6.i:                                            ; preds = %"_ZN5alloc7raw_vec19RawVec$LT$T$C$A$GT$14grow_amortized17hecb74f28a7b7355dE.exit"
  tail call void @llvm.trap() #23
  unreachable

_ZN5alloc7raw_vec14handle_reserve17h0ec43d4a9324f3feE.122.exit: ; preds = %"_ZN5alloc7raw_vec19RawVec$LT$T$C$A$GT$14grow_amortized17hecb74f28a7b7355dE.exit", %"_ZN5alloc7raw_vec19RawVec$LT$T$C$A$GT$14grow_amortized17hecb74f28a7b7355dE.exit.thread"
  ret void
}

; Function Attrs: inlinehint minsize nounwind nonlazybind optsize
define internal fastcc { i64*, i64* } @"_ZN4core4cell16RefCell$LT$T$GT$6borrow17h6c19580b56ec9794E"(%"core::cell::RefCell<alloc::vec::Vec<alloc::rc::Rc<dyn soroban_env_verification::host::ContractFunctionSet>>>"* noundef nonnull align 8 %self) unnamed_addr #6 {
start:
  %_4.i = getelementptr %"core::cell::RefCell<alloc::vec::Vec<alloc::rc::Rc<dyn soroban_env_verification::host::ContractFunctionSet>>>", %"core::cell::RefCell<alloc::vec::Vec<alloc::rc::Rc<dyn soroban_env_verification::host::ContractFunctionSet>>>"* %self, i64 0, i32 0
  %0 = load i64, i64* %_4.i, align 8
  %1 = icmp ult i64 %0, 9223372036854775807
  br i1 %1, label %"_ZN4core6result19Result$LT$T$C$E$GT$6expect17hf399972921a1464cE.exit", label %bb1.i

bb1.i:                                            ; preds = %start
  tail call void @llvm.trap() #23
  unreachable

"_ZN4core6result19Result$LT$T$C$E$GT$6expect17hf399972921a1464cE.exit": ; preds = %start
  %2 = add nuw nsw i64 %0, 1
  store i64 %2, i64* %_4.i, align 8, !alias.scope !381
  %3 = getelementptr inbounds %"core::cell::RefCell<alloc::vec::Vec<alloc::rc::Rc<dyn soroban_env_verification::host::ContractFunctionSet>>>", %"core::cell::RefCell<alloc::vec::Vec<alloc::rc::Rc<dyn soroban_env_verification::host::ContractFunctionSet>>>"* %self, i64 0, i32 1, i32 0, i32 0, i32 0
  %4 = insertvalue { i64*, i64* } undef, i64* %3, 0
  %5 = insertvalue { i64*, i64* } %4, i64* %_4.i, 1
  ret { i64*, i64* } %5
}

; Function Attrs: inaccessiblememonly nofree nosync nounwind willreturn
declare void @llvm.assume(i1 noundef) #7

; Function Attrs: nofree nosync nounwind readnone speculatable willreturn
declare i64 @llvm.bswap.i64(i64) #8

; Function Attrs: minsize nounwind nonlazybind optsize
define internal fastcc { i64, i8* } @"_ZN5alloc7raw_vec19RawVec$LT$T$C$A$GT$11allocate_in17he82cf890ab5333e2E"(i64 %capacity) unnamed_addr #0 {
start:
  %_5 = icmp eq i64 %capacity, 0
  br i1 %_5, label %bb28, label %bb6

bb6:                                              ; preds = %start
  %0 = icmp slt i64 %capacity, 0
  br i1 %0, label %bb8, label %bb21

bb28:                                             ; preds = %bb21, %start
  %.sroa.3.0 = phi i8* [ inttoptr (i64 1 to i8*), %start ], [ %result.sroa.0.0, %bb21 ]
  %1 = insertvalue { i64, i8* } undef, i64 %capacity, 0
  %2 = insertvalue { i64, i8* } %1, i8* %.sroa.3.0, 1
  ret { i64, i8* } %2

bb8:                                              ; preds = %bb6
  tail call void @llvm.trap() #23
  unreachable

bb21:                                             ; preds = %bb6
  %3 = xor i64 %capacity, -1
  %n.lobit.not.i = lshr i64 %3, 63
  %4 = tail call fastcc { i8*, i64 } @_ZN5alloc5alloc6Global10alloc_impl17hac948e35c53147c3E(i64 %capacity, i64 noundef %n.lobit.not.i) #23
  %result.sroa.0.0 = extractvalue { i8*, i64 } %4, 0
  %5 = icmp eq i8* %result.sroa.0.0, null
  br i1 %5, label %bb22, label %bb28

bb22:                                             ; preds = %bb21
  tail call void @llvm.trap() #23
  unreachable
}

; Function Attrs: inlinehint minsize nounwind nonlazybind optsize
define internal fastcc void @"_ZN5alloc3vec16Vec$LT$T$C$A$GT$4push17h45b3f45b4f341b46E"(%"alloc::vec::Vec<alloc::rc::Rc<dyn soroban_env_verification::host::ContractFunctionSet>>"* noalias nocapture noundef align 8 dereferenceable(24) %self, %"core::result::Result<stellar_xdr::next::generated::ScVal, raw_val::ConversionError>"* noalias nocapture noundef readonly dereferenceable(40) %value) unnamed_addr #6 {
start:
  %0 = getelementptr inbounds %"alloc::vec::Vec<alloc::rc::Rc<dyn soroban_env_verification::host::ContractFunctionSet>>", %"alloc::vec::Vec<alloc::rc::Rc<dyn soroban_env_verification::host::ContractFunctionSet>>"* %self, i64 0, i32 1
  %_4 = load i64, i64* %0, align 8
  %1 = getelementptr inbounds %"alloc::vec::Vec<alloc::rc::Rc<dyn soroban_env_verification::host::ContractFunctionSet>>", %"alloc::vec::Vec<alloc::rc::Rc<dyn soroban_env_verification::host::ContractFunctionSet>>"* %self, i64 0, i32 0, i32 0
  %2 = load i64, i64* %1, align 8, !alias.scope !384
  %_3 = icmp eq i64 %_4, %2
  br i1 %_3, label %bb2, label %bb4

bb4:                                              ; preds = %bb2, %start
  %3 = phi i64 [ %_13.pre, %bb2 ], [ %_4, %start ]
  %4 = getelementptr inbounds %"alloc::vec::Vec<alloc::rc::Rc<dyn soroban_env_verification::host::ContractFunctionSet>>", %"alloc::vec::Vec<alloc::rc::Rc<dyn soroban_env_verification::host::ContractFunctionSet>>"* %self, i64 0, i32 0, i32 1
  %5 = bitcast i64** %4 to %"core::result::Result<stellar_xdr::next::generated::ScVal, raw_val::ConversionError>"**
  %_21.i.i = load %"core::result::Result<stellar_xdr::next::generated::ScVal, raw_val::ConversionError>"*, %"core::result::Result<stellar_xdr::next::generated::ScVal, raw_val::ConversionError>"** %5, align 8, !alias.scope !387, !nonnull !123
  %6 = getelementptr inbounds %"core::result::Result<stellar_xdr::next::generated::ScVal, raw_val::ConversionError>", %"core::result::Result<stellar_xdr::next::generated::ScVal, raw_val::ConversionError>"* %value, i64 0, i32 0
  %7 = getelementptr inbounds %"core::result::Result<stellar_xdr::next::generated::ScVal, raw_val::ConversionError>", %"core::result::Result<stellar_xdr::next::generated::ScVal, raw_val::ConversionError>"* %_21.i.i, i64 %3, i32 0
  tail call void @llvm.memcpy.p0i8.p0i8.i64(i8* noundef nonnull align 8 dereferenceable(40) %7, i8* noundef nonnull align 8 dereferenceable(40) %6, i64 40, i1 false)
  %8 = add i64 %3, 1
  store i64 %8, i64* %0, align 8
  ret void

bb2:                                              ; preds = %start
  %_6 = getelementptr inbounds %"alloc::vec::Vec<alloc::rc::Rc<dyn soroban_env_verification::host::ContractFunctionSet>>", %"alloc::vec::Vec<alloc::rc::Rc<dyn soroban_env_verification::host::ContractFunctionSet>>"* %self, i64 0, i32 0
  tail call fastcc void @"_ZN5alloc7raw_vec19RawVec$LT$T$C$A$GT$16reserve_for_push17h320b32110cb2d30eE"({ i64, i64* }* noalias noundef nonnull align 8 dereferenceable(16) %_6, i64 %_4) #23
  %_13.pre = load i64, i64* %0, align 8
  br label %bb4
}

; Function Attrs: argmemonly nofree nosync nounwind willreturn
declare void @llvm.lifetime.end.p0i8(i64 immarg, i8* nocapture) #1

; Function Attrs: inaccessiblememonly nofree nosync nounwind willreturn
declare void @llvm.experimental.noalias.scope.decl(metadata) #7

; Function Attrs: minsize nounwind nonlazybind optsize
define internal fastcc i64 @"_ZN85_$LT$soroban_env_verification..host..Host$u20$as$u20$soroban_env_common..env..Env$GT$9bytes_len17h8caf1757f9e4bd67E"(i64** noalias nocapture noundef readonly align 8 dereferenceable(8) %self, i64 %b) unnamed_addr #0 {
start:
  tail call void @llvm.experimental.noalias.scope.decl(metadata !392)
  tail call void @llvm.experimental.noalias.scope.decl(metadata !395) #23
  %0 = bitcast i64** %self to %"alloc::rc::RcBox<soroban_env_verification::host::HostImpl>"**
  %_31.i.i.i.i.i = load %"alloc::rc::RcBox<soroban_env_verification::host::HostImpl>"*, %"alloc::rc::RcBox<soroban_env_verification::host::HostImpl>"** %0, align 8, !alias.scope !398, !nonnull !123
  %_5.i.i = getelementptr inbounds %"alloc::rc::RcBox<soroban_env_verification::host::HostImpl>", %"alloc::rc::RcBox<soroban_env_verification::host::HostImpl>"* %_31.i.i.i.i.i, i64 0, i32 2, i32 1
  %1 = tail call fastcc { i64*, i64* } @"_ZN4core4cell16RefCell$LT$T$GT$6borrow17h6c19580b56ec9794E"(%"core::cell::RefCell<alloc::vec::Vec<alloc::rc::Rc<dyn soroban_env_verification::host::ContractFunctionSet>>>"* noundef nonnull align 8 %_5.i.i) #23, !noalias !405
  %.fca.0.extract.i.i = extractvalue { i64*, i64* } %1, 0
  %.fca.1.extract.i.i = extractvalue { i64*, i64* } %1, 1
  %2 = lshr i64 %b, 32
  %3 = icmp ne i64* %.fca.0.extract.i.i, null
  tail call void @llvm.assume(i1 %3) #23
  %4 = getelementptr inbounds i64, i64* %.fca.0.extract.i.i, i64 1
  %5 = bitcast i64* %4 to [0 x %"core::result::Result<stellar_xdr::next::generated::ScVal, raw_val::ConversionError>"]**
  %_21.i.i1.i.i.i = load [0 x %"core::result::Result<stellar_xdr::next::generated::ScVal, raw_val::ConversionError>"]*, [0 x %"core::result::Result<stellar_xdr::next::generated::ScVal, raw_val::ConversionError>"]** %5, align 8, !alias.scope !406, !noalias !405, !nonnull !123
  %6 = getelementptr inbounds i64, i64* %.fca.0.extract.i.i, i64 2
  %_4.i.i.i = load i64, i64* %6, align 8, !alias.scope !413, !noalias !405
  %_3.i.i.i.i = icmp ult i64 %2, %_4.i.i.i
  %7 = getelementptr inbounds [0 x %"core::result::Result<stellar_xdr::next::generated::ScVal, raw_val::ConversionError>"], [0 x %"core::result::Result<stellar_xdr::next::generated::ScVal, raw_val::ConversionError>"]* %_21.i.i1.i.i.i, i64 0, i64 %2
  %8 = bitcast %"core::result::Result<stellar_xdr::next::generated::ScVal, raw_val::ConversionError>"* %7 to i64*
  %.0.i.i.i.i = select i1 %_3.i.i.i.i, i64* %8, i64* null
  tail call void @llvm.experimental.noalias.scope.decl(metadata !414) #23
  br i1 %_3.i.i.i.i, label %bb1.i.i.i, label %bb3.i.i.i

bb3.i.i.i:                                        ; preds = %start
  tail call void @llvm.trap() #23, !noalias !417
  unreachable

bb1.i.i.i:                                        ; preds = %start
  %9 = bitcast i64* %.0.i.i.i.i to i8*
  %10 = load i8, i8* %9, align 8, !range !274, !alias.scope !418, !noalias !405, !noundef !123
  %11 = icmp eq i8 %10, 6
  br i1 %11, label %_ZN24soroban_env_verification4host4Host9visit_obj17h10ce39009cc4fe32E.exit, label %bb7.i.i.i

bb7.i.i.i:                                        ; preds = %bb1.i.i.i
  tail call void @llvm.trap() #23, !noalias !417
  unreachable

_ZN24soroban_env_verification4host4Host9visit_obj17h10ce39009cc4fe32E.exit: ; preds = %bb1.i.i.i
  %12 = getelementptr inbounds i64, i64* %.0.i.i.i.i, i64 3
  %13 = load i64, i64* %12, align 8, !alias.scope !421, !noalias !405
  %14 = icmp ne i64* %.fca.1.extract.i.i, null
  tail call void @llvm.assume(i1 %14) #23
  %15 = load i64, i64* %.fca.1.extract.i.i, align 8, !noalias !426
  %_6.i.i.i.i.i = add i64 %15, -1
  store i64 %_6.i.i.i.i.i, i64* %.fca.1.extract.i.i, align 8, !alias.scope !429, !noalias !426
  %_2.i.i = icmp ugt i64 %13, 4294967295
  br i1 %_2.i.i, label %bb2.i, label %"_ZN24soroban_env_verification4host10conversion54_$LT$impl$u20$soroban_env_verification..host..Host$GT$19usize_to_rawval_u3217h2c8bed77be48bdc1E.exit"

bb2.i:                                            ; preds = %_ZN24soroban_env_verification4host4Host9visit_obj17h10ce39009cc4fe32E.exit
  tail call void @llvm.trap() #23
  unreachable

"_ZN24soroban_env_verification4host10conversion54_$LT$impl$u20$soroban_env_verification..host..Host$GT$19usize_to_rawval_u3217h2c8bed77be48bdc1E.exit": ; preds = %_ZN24soroban_env_verification4host4Host9visit_obj17h10ce39009cc4fe32E.exit
  %16 = shl nuw nsw i64 %13, 4
  %17 = and i64 %16, 68719476720
  %_11.i.i.i.i.i = or i64 %17, 1
  ret i64 %_11.i.i.i.i.i
}

; Function Attrs: minsize nounwind nonlazybind optsize
define internal fastcc void @"_ZN64_$LT$alloc..rc..Rc$LT$T$GT$$u20$as$u20$core..ops..drop..Drop$GT$4drop17h830fc5bba9825715E"(i64** noalias nocapture noundef readonly align 8 dereferenceable(8) %self) unnamed_addr #0 {
start:
  %0 = bitcast i64** %self to %"alloc::rc::RcBox<soroban_env_verification::host::HostImpl>"**
  %_31.i.i = load %"alloc::rc::RcBox<soroban_env_verification::host::HostImpl>"*, %"alloc::rc::RcBox<soroban_env_verification::host::HostImpl>"** %0, align 8, !alias.scope !432, !nonnull !123
  %1 = getelementptr %"alloc::rc::RcBox<soroban_env_verification::host::HostImpl>", %"alloc::rc::RcBox<soroban_env_verification::host::HostImpl>"* %_31.i.i, i64 0, i32 0
  %2 = load i64, i64* %1, align 8
  %_6.i = add i64 %2, -1
  store i64 %_6.i, i64* %1, align 8, !alias.scope !437
  %3 = icmp eq i64 %_6.i, 0
  %4 = bitcast %"alloc::rc::RcBox<soroban_env_verification::host::HostImpl>"* %_31.i.i to i8*
  br i1 %3, label %bb5, label %bb20

bb5:                                              ; preds = %start
  tail call void @llvm.experimental.noalias.scope.decl(metadata !440)
  %5 = getelementptr inbounds %"alloc::rc::RcBox<soroban_env_verification::host::HostImpl>", %"alloc::rc::RcBox<soroban_env_verification::host::HostImpl>"* %_31.i.i, i64 0, i32 2, i32 0, i32 1, i32 0, i32 0, i32 1
  %6 = bitcast i64** %5 to [0 x { i64*, i64* }]**
  %_21.i.i1.i = load [0 x { i64*, i64* }]*, [0 x { i64*, i64* }]** %6, align 8, !alias.scope !443, !nonnull !123
  %7 = getelementptr inbounds %"alloc::rc::RcBox<soroban_env_verification::host::HostImpl>", %"alloc::rc::RcBox<soroban_env_verification::host::HostImpl>"* %_31.i.i, i64 0, i32 2, i32 0, i32 1, i32 0, i32 1
  %_5.i = load i64, i64* %7, align 8, !alias.scope !440
  %8 = getelementptr [0 x { i64*, i64* }], [0 x { i64*, i64* }]* %_21.i.i1.i, i64 0, i64 0
  %_10.i.i = getelementptr inbounds [0 x { i64*, i64* }], [0 x { i64*, i64* }]* %_21.i.i1.i, i64 0, i64 %_5.i
  br label %bb6.i.i

bb6.i.i:                                          ; preds = %bb12.i.i, %bb5.i1.i, %bb5.i.i, %bb5
  %_9.0.i.i = phi { i64*, i64* }* [ %8, %bb5 ], [ %9, %bb12.i.i ], [ %9, %bb5.i1.i ], [ %9, %bb5.i.i ]
  %_14.i.i = icmp eq { i64*, i64* }* %_9.0.i.i, %_10.i.i
  br i1 %_14.i.i, label %"_ZN70_$LT$alloc..vec..Vec$LT$T$C$A$GT$$u20$as$u20$core..ops..drop..Drop$GT$4drop17h14db53a498a7e7b1E.exit", label %bb5.i.i

bb5.i.i:                                          ; preds = %bb6.i.i
  %9 = getelementptr inbounds { i64*, i64* }, { i64*, i64* }* %_9.0.i.i, i64 1
  tail call void @llvm.experimental.noalias.scope.decl(metadata !448) #23
  %10 = bitcast { i64*, i64* }* %_9.0.i.i to %"alloc::rc::RcBox<dyn host::ContractFunctionSet>"**
  %_3.01.i.i.i.i = load %"alloc::rc::RcBox<dyn host::ContractFunctionSet>"*, %"alloc::rc::RcBox<dyn host::ContractFunctionSet>"** %10, align 8, !alias.scope !448, !noalias !440, !nonnull !123
  %11 = getelementptr inbounds { i64*, i64* }, { i64*, i64* }* %_9.0.i.i, i64 0, i32 1
  %12 = bitcast i64** %11 to [3 x i64]**
  %13 = getelementptr %"alloc::rc::RcBox<dyn host::ContractFunctionSet>", %"alloc::rc::RcBox<dyn host::ContractFunctionSet>"* %_3.01.i.i.i.i, i64 0, i32 0
  %14 = load i64, i64* %13, align 8, !noalias !451
  %_6.i.i.i = add i64 %14, -1
  store i64 %_6.i.i.i, i64* %13, align 8, !alias.scope !452, !noalias !451
  %_3.12.i.i2.i.i = load [3 x i64]*, [3 x i64]** %12, align 8, !alias.scope !455, !noalias !440, !nonnull !123, !align !353
  %15 = icmp eq i64 %_6.i.i.i, 0
  %16 = bitcast %"alloc::rc::RcBox<dyn host::ContractFunctionSet>"* %_3.01.i.i.i.i to i8*
  br i1 %15, label %bb5.i1.i, label %bb6.i.i

bb5.i1.i:                                         ; preds = %bb5.i.i
  %17 = getelementptr inbounds [3 x i64], [3 x i64]* %_3.12.i.i2.i.i, i64 0, i64 2
  %18 = load i64, i64* %17, align 8, !range !354, !invariant.load !123, !noalias !460
  %19 = add i64 %18, 15
  %20 = and i64 %19, -16
  %21 = getelementptr i8, i8* %16, i64 %20
  %_4.0.i.i.i = bitcast i8* %21 to {}*
  tail call void @llvm.experimental.noalias.scope.decl(metadata !463) #23
  %22 = bitcast [3 x i64]* %_3.12.i.i2.i.i to void ({}*)**
  %23 = load void ({}*)*, void ({}*)** %22, align 8, !invariant.load !123, !alias.scope !463, !noalias !451, !nonnull !123
  tail call void %23({}* %_4.0.i.i.i) #23, !noalias !466
  %24 = getelementptr inbounds %"alloc::rc::RcBox<dyn host::ContractFunctionSet>", %"alloc::rc::RcBox<dyn host::ContractFunctionSet>"* %_3.01.i.i.i.i, i64 0, i32 1
  %25 = load i64, i64* %24, align 8, !noalias !451
  %_6.i7.i.i = add i64 %25, -1
  store i64 %_6.i7.i.i, i64* %24, align 8, !alias.scope !467, !noalias !451
  %26 = icmp eq i64 %_6.i7.i.i, 0
  br i1 %26, label %bb12.i.i, label %bb6.i.i

bb12.i.i:                                         ; preds = %bb5.i1.i
  %27 = getelementptr inbounds [3 x i64], [3 x i64]* %_3.12.i.i2.i.i, i64 0, i64 1
  %28 = load i64, i64* %27, align 8, !invariant.load !123, !alias.scope !470, !noalias !451
  %29 = icmp ugt i64 %18, 8
  %30 = select i1 %29, i64 %18, i64 8
  %31 = add i64 %28, 15
  %32 = add i64 %31, %30
  %33 = sub i64 0, %30
  %34 = and i64 %32, %33
  tail call fastcc void @"_ZN63_$LT$alloc..alloc..Global$u20$as$u20$core..alloc..Allocator$GT$10deallocate17ha005437c24434b98E.127"(i8* noundef nonnull %16, i64 %34) #23, !noalias !451
  br label %bb6.i.i

"_ZN70_$LT$alloc..vec..Vec$LT$T$C$A$GT$$u20$as$u20$core..ops..drop..Drop$GT$4drop17h14db53a498a7e7b1E.exit": ; preds = %bb6.i.i
  tail call void @llvm.experimental.noalias.scope.decl(metadata !475)
  %35 = getelementptr inbounds %"alloc::rc::RcBox<soroban_env_verification::host::HostImpl>", %"alloc::rc::RcBox<soroban_env_verification::host::HostImpl>"* %_31.i.i, i64 0, i32 2, i32 0, i32 1, i32 0, i32 0, i32 0
  %_4.i.i = load i64, i64* %35, align 8, !alias.scope !478, !noalias !481
  %_3.i.i = icmp eq i64 %_4.i.i, 0
  br i1 %_3.i.i, label %"_ZN77_$LT$alloc..raw_vec..RawVec$LT$T$C$A$GT$$u20$as$u20$core..ops..drop..Drop$GT$4drop17ha8a6c6e18bd7a41cE.exit", label %bb2.i

bb2.i:                                            ; preds = %"_ZN70_$LT$alloc..vec..Vec$LT$T$C$A$GT$$u20$as$u20$core..ops..drop..Drop$GT$4drop17h14db53a498a7e7b1E.exit"
  %_6.i.i.i.i = icmp ult i64 %_4.i.i, 576460752303423488
  %array_size.i.i.i.i = shl nuw nsw i64 %_4.i.i, 4
  tail call void @llvm.assume(i1 %_6.i.i.i.i) #23
  %36 = bitcast i64** %5 to i8**
  %_116.i.i = load i8*, i8** %36, align 8, !alias.scope !478, !noalias !481, !nonnull !123
  tail call fastcc void @"_ZN63_$LT$alloc..alloc..Global$u20$as$u20$core..alloc..Allocator$GT$10deallocate17ha005437c24434b98E.127"(i8* noundef nonnull %_116.i.i, i64 %array_size.i.i.i.i) #23, !noalias !475
  br label %"_ZN77_$LT$alloc..raw_vec..RawVec$LT$T$C$A$GT$$u20$as$u20$core..ops..drop..Drop$GT$4drop17ha8a6c6e18bd7a41cE.exit"

"_ZN77_$LT$alloc..raw_vec..RawVec$LT$T$C$A$GT$$u20$as$u20$core..ops..drop..Drop$GT$4drop17ha8a6c6e18bd7a41cE.exit": ; preds = %bb2.i, %"_ZN70_$LT$alloc..vec..Vec$LT$T$C$A$GT$$u20$as$u20$core..ops..drop..Drop$GT$4drop17h14db53a498a7e7b1E.exit"
  tail call void @llvm.experimental.noalias.scope.decl(metadata !483)
  %37 = getelementptr inbounds %"alloc::rc::RcBox<soroban_env_verification::host::HostImpl>", %"alloc::rc::RcBox<soroban_env_verification::host::HostImpl>"* %_31.i.i, i64 0, i32 2, i32 1, i32 1, i32 0, i32 0, i32 1
  %38 = bitcast i64** %37 to [0 x %"core::result::Result<stellar_xdr::next::generated::ScVal, raw_val::ConversionError>"]**
  %_21.i.i1.i2 = load [0 x %"core::result::Result<stellar_xdr::next::generated::ScVal, raw_val::ConversionError>"]*, [0 x %"core::result::Result<stellar_xdr::next::generated::ScVal, raw_val::ConversionError>"]** %38, align 8, !alias.scope !486, !nonnull !123
  %39 = getelementptr inbounds %"alloc::rc::RcBox<soroban_env_verification::host::HostImpl>", %"alloc::rc::RcBox<soroban_env_verification::host::HostImpl>"* %_31.i.i, i64 0, i32 2, i32 1, i32 1, i32 0, i32 1
  %_5.i3 = load i64, i64* %39, align 8, !alias.scope !483
  %40 = getelementptr [0 x %"core::result::Result<stellar_xdr::next::generated::ScVal, raw_val::ConversionError>"], [0 x %"core::result::Result<stellar_xdr::next::generated::ScVal, raw_val::ConversionError>"]* %_21.i.i1.i2, i64 0, i64 0
  %_10.i.i4 = getelementptr inbounds [0 x %"core::result::Result<stellar_xdr::next::generated::ScVal, raw_val::ConversionError>"], [0 x %"core::result::Result<stellar_xdr::next::generated::ScVal, raw_val::ConversionError>"]* %_21.i.i1.i2, i64 0, i64 %_5.i3
  br label %bb6.i.i7

bb6.i.i7:                                         ; preds = %bb4.i.i.i, %bb2.i13.i, %bb3.i.i.i, %bb2.i.i, %bb2.i.i.i, %bb5.i.i8, %"_ZN77_$LT$alloc..raw_vec..RawVec$LT$T$C$A$GT$$u20$as$u20$core..ops..drop..Drop$GT$4drop17ha8a6c6e18bd7a41cE.exit"
  %_9.0.i.i5 = phi %"core::result::Result<stellar_xdr::next::generated::ScVal, raw_val::ConversionError>"* [ %40, %"_ZN77_$LT$alloc..raw_vec..RawVec$LT$T$C$A$GT$$u20$as$u20$core..ops..drop..Drop$GT$4drop17ha8a6c6e18bd7a41cE.exit" ], [ %41, %bb2.i13.i ], [ %41, %bb3.i.i.i ], [ %41, %bb2.i.i ], [ %41, %bb2.i.i.i ], [ %41, %bb4.i.i.i ], [ %41, %bb5.i.i8 ]
  %_14.i.i6 = icmp eq %"core::result::Result<stellar_xdr::next::generated::ScVal, raw_val::ConversionError>"* %_9.0.i.i5, %_10.i.i4
  br i1 %_14.i.i6, label %"_ZN70_$LT$alloc..vec..Vec$LT$T$C$A$GT$$u20$as$u20$core..ops..drop..Drop$GT$4drop17h5585a035fac061ccE.exit", label %bb5.i.i8

bb5.i.i8:                                         ; preds = %bb6.i.i7
  %41 = getelementptr inbounds %"core::result::Result<stellar_xdr::next::generated::ScVal, raw_val::ConversionError>", %"core::result::Result<stellar_xdr::next::generated::ScVal, raw_val::ConversionError>"* %_9.0.i.i5, i64 1
  %42 = getelementptr %"core::result::Result<stellar_xdr::next::generated::ScVal, raw_val::ConversionError>", %"core::result::Result<stellar_xdr::next::generated::ScVal, raw_val::ConversionError>"* %_9.0.i.i5, i64 0, i32 0
  %43 = load i8, i8* %42, align 8, !range !274, !noalias !483, !noundef !123
  %_2.i.i.i = zext i8 %43 to i64
  switch i64 %_2.i.i.i, label %bb6.i.i7 [
    i64 0, label %bb2.i.i.i
    i64 1, label %bb3.i.i.i
    i64 6, label %bb4.i.i.i
  ]

bb2.i.i.i:                                        ; preds = %bb5.i.i8
  %44 = getelementptr inbounds %"core::result::Result<stellar_xdr::next::generated::ScVal, raw_val::ConversionError>", %"core::result::Result<stellar_xdr::next::generated::ScVal, raw_val::ConversionError>"* %_9.0.i.i5, i64 0, i32 1, i64 7
  tail call void @llvm.experimental.noalias.scope.decl(metadata !491) #23
  %45 = bitcast i8* %44 to i64*
  %_4.i.i.i = load i64, i64* %45, align 8, !alias.scope !494, !noalias !497
  %_3.i.i.i = icmp eq i64 %_4.i.i.i, 0
  br i1 %_3.i.i.i, label %bb6.i.i7, label %bb2.i.i

bb2.i.i:                                          ; preds = %bb2.i.i.i
  %_6.i.i.i.i.i = icmp ult i64 %_4.i.i.i, 1152921504606846976
  %array_size.i.i.i.i.i = shl nuw nsw i64 %_4.i.i.i, 3
  tail call void @llvm.assume(i1 %_6.i.i.i.i.i) #23
  %46 = getelementptr inbounds %"core::result::Result<stellar_xdr::next::generated::ScVal, raw_val::ConversionError>", %"core::result::Result<stellar_xdr::next::generated::ScVal, raw_val::ConversionError>"* %_9.0.i.i5, i64 0, i32 1, i64 15
  %47 = bitcast i8* %46 to i8**
  %_116.i.i.i = load i8*, i8** %47, align 8, !alias.scope !494, !noalias !497, !nonnull !123
  tail call fastcc void @"_ZN63_$LT$alloc..alloc..Global$u20$as$u20$core..alloc..Allocator$GT$10deallocate17ha005437c24434b98E.127"(i8* noundef nonnull %_116.i.i.i, i64 %array_size.i.i.i.i.i) #23, !noalias !499
  br label %bb6.i.i7

bb3.i.i.i:                                        ; preds = %bb5.i.i8
  %48 = getelementptr inbounds %"core::result::Result<stellar_xdr::next::generated::ScVal, raw_val::ConversionError>", %"core::result::Result<stellar_xdr::next::generated::ScVal, raw_val::ConversionError>"* %_9.0.i.i5, i64 0, i32 1, i64 7
  tail call void @llvm.experimental.noalias.scope.decl(metadata !500) #23
  %49 = bitcast i8* %48 to i64*
  %_4.i.i2.i = load i64, i64* %49, align 8, !alias.scope !503, !noalias !506
  %_3.i.i3.i = icmp eq i64 %_4.i.i2.i, 0
  br i1 %_3.i.i3.i, label %bb6.i.i7, label %bb2.i13.i

bb2.i13.i:                                        ; preds = %bb3.i.i.i
  %_6.i.i.i.i4.i = icmp ult i64 %_4.i.i2.i, 576460752303423488
  %array_size.i.i.i.i5.i = shl nuw nsw i64 %_4.i.i2.i, 4
  tail call void @llvm.assume(i1 %_6.i.i.i.i4.i) #23
  %50 = getelementptr inbounds %"core::result::Result<stellar_xdr::next::generated::ScVal, raw_val::ConversionError>", %"core::result::Result<stellar_xdr::next::generated::ScVal, raw_val::ConversionError>"* %_9.0.i.i5, i64 0, i32 1, i64 15
  %51 = bitcast i8* %50 to i8**
  %_116.i.i6.i = load i8*, i8** %51, align 8, !alias.scope !503, !noalias !506, !nonnull !123
  tail call fastcc void @"_ZN63_$LT$alloc..alloc..Global$u20$as$u20$core..alloc..Allocator$GT$10deallocate17ha005437c24434b98E.127"(i8* noundef nonnull %_116.i.i6.i, i64 %array_size.i.i.i.i5.i) #23, !noalias !508
  br label %bb6.i.i7

bb4.i.i.i:                                        ; preds = %bb5.i.i8
  %52 = getelementptr inbounds %"core::result::Result<stellar_xdr::next::generated::ScVal, raw_val::ConversionError>", %"core::result::Result<stellar_xdr::next::generated::ScVal, raw_val::ConversionError>"* %_9.0.i.i5, i64 0, i32 1, i64 7
  %53 = bitcast i8* %52 to { i64, i8* }*
  tail call fastcc void @"_ZN77_$LT$alloc..raw_vec..RawVec$LT$T$C$A$GT$$u20$as$u20$core..ops..drop..Drop$GT$4drop17h26a5ac32e7c71895E"({ i64, i8* }* noalias noundef nonnull align 8 dereferenceable(16) %53) #23, !noalias !483
  br label %bb6.i.i7

"_ZN70_$LT$alloc..vec..Vec$LT$T$C$A$GT$$u20$as$u20$core..ops..drop..Drop$GT$4drop17h5585a035fac061ccE.exit": ; preds = %bb6.i.i7
  tail call void @llvm.experimental.noalias.scope.decl(metadata !509)
  %54 = getelementptr inbounds %"alloc::rc::RcBox<soroban_env_verification::host::HostImpl>", %"alloc::rc::RcBox<soroban_env_verification::host::HostImpl>"* %_31.i.i, i64 0, i32 2, i32 1, i32 1, i32 0, i32 0, i32 0
  %_4.i.i10 = load i64, i64* %54, align 8, !alias.scope !512, !noalias !515
  %_3.i.i11 = icmp eq i64 %_4.i.i10, 0
  br i1 %_3.i.i11, label %"_ZN77_$LT$alloc..raw_vec..RawVec$LT$T$C$A$GT$$u20$as$u20$core..ops..drop..Drop$GT$4drop17h26a5d84502417aeaE.exit", label %bb2.i21

bb2.i21:                                          ; preds = %"_ZN70_$LT$alloc..vec..Vec$LT$T$C$A$GT$$u20$as$u20$core..ops..drop..Drop$GT$4drop17h5585a035fac061ccE.exit"
  %_6.i.i.i.i12 = icmp ult i64 %_4.i.i10, 230584300921369396
  %array_size.i.i.i.i13 = mul nuw nsw i64 %_4.i.i10, 40
  tail call void @llvm.assume(i1 %_6.i.i.i.i12) #23
  %55 = bitcast i64** %37 to i8**
  %_116.i.i14 = load i8*, i8** %55, align 8, !alias.scope !512, !noalias !515, !nonnull !123
  tail call fastcc void @"_ZN63_$LT$alloc..alloc..Global$u20$as$u20$core..alloc..Allocator$GT$10deallocate17ha005437c24434b98E.127"(i8* noundef nonnull %_116.i.i14, i64 %array_size.i.i.i.i13) #23, !noalias !509
  br label %"_ZN77_$LT$alloc..raw_vec..RawVec$LT$T$C$A$GT$$u20$as$u20$core..ops..drop..Drop$GT$4drop17h26a5d84502417aeaE.exit"

"_ZN77_$LT$alloc..raw_vec..RawVec$LT$T$C$A$GT$$u20$as$u20$core..ops..drop..Drop$GT$4drop17h26a5d84502417aeaE.exit": ; preds = %bb2.i21, %"_ZN70_$LT$alloc..vec..Vec$LT$T$C$A$GT$$u20$as$u20$core..ops..drop..Drop$GT$4drop17h5585a035fac061ccE.exit"
  tail call void @llvm.experimental.noalias.scope.decl(metadata !517)
  %56 = getelementptr inbounds %"alloc::rc::RcBox<soroban_env_verification::host::HostImpl>", %"alloc::rc::RcBox<soroban_env_verification::host::HostImpl>"* %_31.i.i, i64 0, i32 2, i32 2, i32 1, i32 0, i32 0, i32 0, i32 0, i32 1
  %57 = bitcast i64** %56 to [0 x { i64*, i64* }]**
  %_21.i.i1.i22 = load [0 x { i64*, i64* }]*, [0 x { i64*, i64* }]** %57, align 8, !alias.scope !520, !nonnull !123
  %58 = getelementptr inbounds %"alloc::rc::RcBox<soroban_env_verification::host::HostImpl>", %"alloc::rc::RcBox<soroban_env_verification::host::HostImpl>"* %_31.i.i, i64 0, i32 2, i32 2, i32 1, i32 0, i32 0, i32 0, i32 1
  %_5.i23 = load i64, i64* %58, align 8, !alias.scope !517
  %59 = getelementptr [0 x { i64*, i64* }], [0 x { i64*, i64* }]* %_21.i.i1.i22, i64 0, i64 0
  %_10.i.i24 = getelementptr inbounds [0 x { i64*, i64* }], [0 x { i64*, i64* }]* %_21.i.i1.i22, i64 0, i64 %_5.i23
  br label %bb6.i.i27

bb6.i.i27:                                        ; preds = %bb5.i.i28, %"_ZN77_$LT$alloc..raw_vec..RawVec$LT$T$C$A$GT$$u20$as$u20$core..ops..drop..Drop$GT$4drop17h26a5d84502417aeaE.exit"
  %_9.0.i.i25 = phi { i64*, i64* }* [ %59, %"_ZN77_$LT$alloc..raw_vec..RawVec$LT$T$C$A$GT$$u20$as$u20$core..ops..drop..Drop$GT$4drop17h26a5d84502417aeaE.exit" ], [ %60, %bb5.i.i28 ]
  %_14.i.i26 = icmp eq { i64*, i64* }* %_9.0.i.i25, %_10.i.i24
  br i1 %_14.i.i26, label %"_ZN70_$LT$alloc..vec..Vec$LT$T$C$A$GT$$u20$as$u20$core..ops..drop..Drop$GT$4drop17ha757302226ed8750E.exit", label %bb5.i.i28

bb5.i.i28:                                        ; preds = %bb6.i.i27
  %60 = getelementptr inbounds { i64*, i64* }, { i64*, i64* }* %_9.0.i.i25, i64 1
  %61 = getelementptr inbounds { i64*, i64* }, { i64*, i64* }* %_9.0.i.i25, i64 0, i32 1
  tail call fastcc void @"_ZN64_$LT$alloc..rc..Rc$LT$T$GT$$u20$as$u20$core..ops..drop..Drop$GT$4drop17h2d1c005fc6f70b87E"(i64** noalias noundef nonnull align 8 dereferenceable(8) %61) #23, !noalias !517
  %62 = getelementptr { i64*, i64* }, { i64*, i64* }* %_9.0.i.i25, i64 0, i32 0
  tail call fastcc void @"_ZN4core3ptr105drop_in_place$LT$core..option..Option$LT$alloc..rc..Rc$LT$stellar_xdr..next..generated..ScVal$GT$$GT$$GT$17h9a6db5bc3ce1296eE"(i64** %62) #23, !noalias !517
  br label %bb6.i.i27

"_ZN70_$LT$alloc..vec..Vec$LT$T$C$A$GT$$u20$as$u20$core..ops..drop..Drop$GT$4drop17ha757302226ed8750E.exit": ; preds = %bb6.i.i27
  tail call void @llvm.experimental.noalias.scope.decl(metadata !525)
  %63 = getelementptr inbounds %"alloc::rc::RcBox<soroban_env_verification::host::HostImpl>", %"alloc::rc::RcBox<soroban_env_verification::host::HostImpl>"* %_31.i.i, i64 0, i32 2, i32 2, i32 1, i32 0, i32 0, i32 0, i32 0, i32 0
  %_4.i.i30 = load i64, i64* %63, align 8, !alias.scope !528, !noalias !531
  %_3.i.i31 = icmp eq i64 %_4.i.i30, 0
  br i1 %_3.i.i31, label %"_ZN77_$LT$alloc..raw_vec..RawVec$LT$T$C$A$GT$$u20$as$u20$core..ops..drop..Drop$GT$4drop17hc701e61aa8548c24E.exit", label %bb2.i41

bb2.i41:                                          ; preds = %"_ZN70_$LT$alloc..vec..Vec$LT$T$C$A$GT$$u20$as$u20$core..ops..drop..Drop$GT$4drop17ha757302226ed8750E.exit"
  %_6.i.i.i.i32 = icmp ult i64 %_4.i.i30, 576460752303423488
  %array_size.i.i.i.i33 = shl nuw nsw i64 %_4.i.i30, 4
  tail call void @llvm.assume(i1 %_6.i.i.i.i32) #23
  %64 = bitcast i64** %56 to i8**
  %_116.i.i34 = load i8*, i8** %64, align 8, !alias.scope !528, !noalias !531, !nonnull !123
  tail call fastcc void @"_ZN63_$LT$alloc..alloc..Global$u20$as$u20$core..alloc..Allocator$GT$10deallocate17ha005437c24434b98E.127"(i8* noundef nonnull %_116.i.i34, i64 %array_size.i.i.i.i33) #23, !noalias !525
  br label %"_ZN77_$LT$alloc..raw_vec..RawVec$LT$T$C$A$GT$$u20$as$u20$core..ops..drop..Drop$GT$4drop17hc701e61aa8548c24E.exit"

"_ZN77_$LT$alloc..raw_vec..RawVec$LT$T$C$A$GT$$u20$as$u20$core..ops..drop..Drop$GT$4drop17hc701e61aa8548c24E.exit": ; preds = %bb2.i41, %"_ZN70_$LT$alloc..vec..Vec$LT$T$C$A$GT$$u20$as$u20$core..ops..drop..Drop$GT$4drop17ha757302226ed8750E.exit"
  %65 = getelementptr inbounds %"alloc::rc::RcBox<soroban_env_verification::host::HostImpl>", %"alloc::rc::RcBox<soroban_env_verification::host::HostImpl>"* %_31.i.i, i64 0, i32 1
  %66 = load i64, i64* %65, align 8
  %_6.i4 = add i64 %66, -1
  store i64 %_6.i4, i64* %65, align 8, !alias.scope !533
  %67 = icmp eq i64 %_6.i4, 0
  br i1 %67, label %bb12, label %bb20

bb20:                                             ; preds = %bb12, %"_ZN77_$LT$alloc..raw_vec..RawVec$LT$T$C$A$GT$$u20$as$u20$core..ops..drop..Drop$GT$4drop17hc701e61aa8548c24E.exit", %start
  ret void

bb12:                                             ; preds = %"_ZN77_$LT$alloc..raw_vec..RawVec$LT$T$C$A$GT$$u20$as$u20$core..ops..drop..Drop$GT$4drop17hc701e61aa8548c24E.exit"
  tail call void @free(i8* nonnull %4) #23
  br label %bb20
}

; Function Attrs: argmemonly nofree nounwind willreturn
declare void @llvm.memcpy.p0i8.p0i8.i64(i8* noalias nocapture writeonly, i8* noalias nocapture readonly, i64, i1 immarg) #9

; Function Attrs: minsize noreturn nounwind nonlazybind optsize
define internal fastcc void @_ZN13seahorn_stubs5error17hdf0d011bda4f2b51E() unnamed_addr #10 {
start:
  tail call void @__VERIFIER_error() #24
  unreachable
}

; Function Attrs: minsize noreturn nounwind nonlazybind optsize
declare void @__VERIFIER_error() unnamed_addr #10

; Function Attrs: inlinehint minsize mustprogress nounwind nonlazybind optsize willreturn
define internal fastcc void @"_ZN63_$LT$alloc..alloc..Global$u20$as$u20$core..alloc..Allocator$GT$10deallocate17ha005437c24434b98E.127"(i8* nocapture noundef nonnull %ptr, i64 %0) unnamed_addr #11 {
start:
  %1 = icmp eq i64 %0, 0
  br i1 %1, label %bb6, label %bb2

bb2:                                              ; preds = %start
  tail call void @free(i8* nonnull %ptr) #23
  br label %bb6

bb6:                                              ; preds = %bb2, %start
  ret void
}

; Function Attrs: minsize mustprogress nounwind nonlazybind optsize willreturn
define internal fastcc void @"_ZN77_$LT$alloc..raw_vec..RawVec$LT$T$C$A$GT$$u20$as$u20$core..ops..drop..Drop$GT$4drop17h26a5ac32e7c71895E"({ i64, i8* }* noalias nocapture noundef readonly align 8 dereferenceable(16) %self) unnamed_addr #12 {
start:
  %0 = getelementptr inbounds { i64, i8* }, { i64, i8* }* %self, i64 0, i32 0
  %_4.i = load i64, i64* %0, align 8, !alias.scope !536, !noalias !539
  %_3.i = icmp eq i64 %_4.i, 0
  br i1 %_3.i, label %bb4, label %bb2

bb2:                                              ; preds = %start
  %1 = icmp sgt i64 %_4.i, -1
  tail call void @llvm.assume(i1 %1) #23
  %2 = getelementptr inbounds { i64, i8* }, { i64, i8* }* %self, i64 0, i32 1
  %_11.i = load i8*, i8** %2, align 8, !alias.scope !536, !noalias !539, !nonnull !123, !noundef !123
  tail call void @free(i8* nonnull %_11.i) #23
  br label %bb4

bb4:                                              ; preds = %bb2, %start
  ret void
}

; Function Attrs: minsize nounwind nonlazybind optsize
define internal fastcc void @"_ZN64_$LT$alloc..rc..Rc$LT$T$GT$$u20$as$u20$core..ops..drop..Drop$GT$4drop17h2d1c005fc6f70b87E"(i64** noalias nocapture noundef readonly align 8 dereferenceable(8) %self) unnamed_addr #0 {
start:
  %0 = bitcast i64** %self to %"alloc::rc::RcBox<stellar_xdr::next::generated::ScVal>"**
  %_31.i.i = load %"alloc::rc::RcBox<stellar_xdr::next::generated::ScVal>"*, %"alloc::rc::RcBox<stellar_xdr::next::generated::ScVal>"** %0, align 8, !alias.scope !541, !nonnull !123
  %1 = getelementptr %"alloc::rc::RcBox<stellar_xdr::next::generated::ScVal>", %"alloc::rc::RcBox<stellar_xdr::next::generated::ScVal>"* %_31.i.i, i64 0, i32 0
  %2 = load i64, i64* %1, align 8
  %_6.i = add i64 %2, -1
  store i64 %_6.i, i64* %1, align 8, !alias.scope !546
  %3 = icmp eq i64 %_6.i, 0
  %4 = bitcast %"alloc::rc::RcBox<stellar_xdr::next::generated::ScVal>"* %_31.i.i to i8*
  br i1 %3, label %bb5, label %bb20

bb5:                                              ; preds = %start
  %_4.i = getelementptr inbounds %"alloc::rc::RcBox<stellar_xdr::next::generated::ScVal>", %"alloc::rc::RcBox<stellar_xdr::next::generated::ScVal>"* %_31.i.i, i64 0, i32 2
  tail call fastcc void @"_ZN4core3ptr56drop_in_place$LT$stellar_xdr..next..generated..ScVal$GT$17h044a29ff334c2310E"(%"core::result::Result<stellar_xdr::next::generated::ScVal, raw_val::ConversionError>"* nonnull %_4.i) #23
  %5 = getelementptr inbounds %"alloc::rc::RcBox<stellar_xdr::next::generated::ScVal>", %"alloc::rc::RcBox<stellar_xdr::next::generated::ScVal>"* %_31.i.i, i64 0, i32 1
  %6 = load i64, i64* %5, align 8
  %_6.i4 = add i64 %6, -1
  store i64 %_6.i4, i64* %5, align 8, !alias.scope !549
  %7 = icmp eq i64 %_6.i4, 0
  br i1 %7, label %bb12, label %bb20

bb20:                                             ; preds = %bb12, %bb5, %start
  ret void

bb12:                                             ; preds = %bb5
  tail call void @free(i8* nonnull %4) #23
  br label %bb20
}

; Function Attrs: minsize nounwind nonlazybind optsize
define internal fastcc void @"_ZN4core3ptr105drop_in_place$LT$core..option..Option$LT$alloc..rc..Rc$LT$stellar_xdr..next..generated..ScVal$GT$$GT$$GT$17h9a6db5bc3ce1296eE"(i64** nocapture readonly %_1) unnamed_addr #0 {
start:
  %0 = bitcast i64** %_1 to {}**
  %1 = load {}*, {}** %0, align 8
  %2 = icmp eq {}* %1, null
  br i1 %2, label %bb1, label %bb2

bb1:                                              ; preds = %bb2, %start
  ret void

bb2:                                              ; preds = %start
  tail call fastcc void @"_ZN64_$LT$alloc..rc..Rc$LT$T$GT$$u20$as$u20$core..ops..drop..Drop$GT$4drop17h2d1c005fc6f70b87E"(i64** noalias noundef nonnull align 8 dereferenceable(8) %_1) #23
  br label %bb1
}

; Function Attrs: inaccessiblemem_or_argmemonly minsize mustprogress nounwind nonlazybind optsize willreturn
declare void @free(i8* nocapture noundef) unnamed_addr #13

; Function Attrs: minsize nounwind nonlazybind optsize
define internal fastcc void @"_ZN4core3ptr56drop_in_place$LT$stellar_xdr..next..generated..ScVal$GT$17h044a29ff334c2310E"(%"core::result::Result<stellar_xdr::next::generated::ScVal, raw_val::ConversionError>"* nocapture readonly %_1) unnamed_addr #0 {
start:
  %0 = getelementptr %"core::result::Result<stellar_xdr::next::generated::ScVal, raw_val::ConversionError>", %"core::result::Result<stellar_xdr::next::generated::ScVal, raw_val::ConversionError>"* %_1, i64 0, i32 0
  %1 = load i8, i8* %0, align 8, !range !552, !noundef !123
  %2 = icmp ugt i8 %1, 10
  %3 = add nsw i8 %1, -11
  %narrow = select i1 %2, i8 %3, i8 4
  switch i8 %narrow, label %bb1 [
    i8 5, label %bb3
    i8 4, label %bb2
  ]

bb1:                                              ; preds = %bb3, %bb4.i.i, %bb3.i.i, %bb2.i.i, %bb2.i, %bb2, %start
  ret void

bb2:                                              ; preds = %start
  %4 = icmp eq i8 %1, 10
  br i1 %4, label %bb1, label %bb2.i

bb2.i:                                            ; preds = %bb2
  %_2.i.i = zext i8 %1 to i64
  switch i64 %_2.i.i, label %bb1 [
    i64 0, label %bb2.i.i
    i64 1, label %bb3.i.i
    i64 6, label %bb4.i.i
  ]

bb2.i.i:                                          ; preds = %bb2.i
  %5 = getelementptr inbounds %"core::result::Result<stellar_xdr::next::generated::ScVal, raw_val::ConversionError>", %"core::result::Result<stellar_xdr::next::generated::ScVal, raw_val::ConversionError>"* %_1, i64 0, i32 1, i64 7
  %6 = bitcast i8* %5 to %"alloc::vec::Vec<alloc::rc::Rc<dyn soroban_env_verification::host::ContractFunctionSet>>"*
  tail call fastcc void @"_ZN70_$LT$alloc..vec..Vec$LT$T$C$A$GT$$u20$as$u20$core..ops..drop..Drop$GT$4drop17hbb062954fdb8d771E"(%"alloc::vec::Vec<alloc::rc::Rc<dyn soroban_env_verification::host::ContractFunctionSet>>"* noalias noundef nonnull align 8 dereferenceable(24) %6) #23
  %7 = bitcast i8* %5 to { i64, i64* }*
  tail call fastcc void @"_ZN77_$LT$alloc..raw_vec..RawVec$LT$T$C$A$GT$$u20$as$u20$core..ops..drop..Drop$GT$4drop17h91fd7550336a87d5E"({ i64, i64* }* noalias noundef nonnull align 8 dereferenceable(16) %7) #23
  br label %bb1

bb3.i.i:                                          ; preds = %bb2.i
  %8 = getelementptr inbounds %"core::result::Result<stellar_xdr::next::generated::ScVal, raw_val::ConversionError>", %"core::result::Result<stellar_xdr::next::generated::ScVal, raw_val::ConversionError>"* %_1, i64 0, i32 1, i64 7
  %9 = bitcast i8* %8 to %"alloc::vec::Vec<alloc::rc::Rc<dyn soroban_env_verification::host::ContractFunctionSet>>"*
  tail call fastcc void @"_ZN70_$LT$alloc..vec..Vec$LT$T$C$A$GT$$u20$as$u20$core..ops..drop..Drop$GT$4drop17h5de65dbe718275d7E"(%"alloc::vec::Vec<alloc::rc::Rc<dyn soroban_env_verification::host::ContractFunctionSet>>"* noalias noundef nonnull align 8 dereferenceable(24) %9) #23
  %10 = bitcast i8* %8 to { i64, i64* }*
  tail call fastcc void @"_ZN77_$LT$alloc..raw_vec..RawVec$LT$T$C$A$GT$$u20$as$u20$core..ops..drop..Drop$GT$4drop17hb61eb43314d6f0a2E"({ i64, i64* }* noalias noundef nonnull align 8 dereferenceable(16) %10) #23
  br label %bb1

bb4.i.i:                                          ; preds = %bb2.i
  %11 = getelementptr inbounds %"core::result::Result<stellar_xdr::next::generated::ScVal, raw_val::ConversionError>", %"core::result::Result<stellar_xdr::next::generated::ScVal, raw_val::ConversionError>"* %_1, i64 0, i32 1, i64 7
  %12 = bitcast i8* %11 to { i64, i8* }*
  tail call fastcc void @"_ZN77_$LT$alloc..raw_vec..RawVec$LT$T$C$A$GT$$u20$as$u20$core..ops..drop..Drop$GT$4drop17h26a5ac32e7c71895E"({ i64, i8* }* noalias noundef nonnull align 8 dereferenceable(16) %12) #23
  br label %bb1

bb3:                                              ; preds = %start
  %13 = getelementptr inbounds %"core::result::Result<stellar_xdr::next::generated::ScVal, raw_val::ConversionError>", %"core::result::Result<stellar_xdr::next::generated::ScVal, raw_val::ConversionError>"* %_1, i64 0, i32 1, i64 7
  %14 = bitcast i8* %13 to { i64, i8* }*
  tail call fastcc void @"_ZN77_$LT$alloc..raw_vec..RawVec$LT$T$C$A$GT$$u20$as$u20$core..ops..drop..Drop$GT$4drop17h26a5ac32e7c71895E"({ i64, i8* }* noalias noundef nonnull align 8 dereferenceable(16) %14) #23
  br label %bb1
}

; Function Attrs: minsize nounwind nonlazybind optsize
define internal fastcc void @"_ZN70_$LT$alloc..vec..Vec$LT$T$C$A$GT$$u20$as$u20$core..ops..drop..Drop$GT$4drop17hbb062954fdb8d771E"(%"alloc::vec::Vec<alloc::rc::Rc<dyn soroban_env_verification::host::ContractFunctionSet>>"* noalias nocapture noundef readonly align 8 dereferenceable(24) %self) unnamed_addr #0 {
start:
  %0 = getelementptr inbounds %"alloc::vec::Vec<alloc::rc::Rc<dyn soroban_env_verification::host::ContractFunctionSet>>", %"alloc::vec::Vec<alloc::rc::Rc<dyn soroban_env_verification::host::ContractFunctionSet>>"* %self, i64 0, i32 0, i32 1
  %1 = bitcast i64** %0 to [0 x %"core::result::Result<stellar_xdr::next::generated::ScVal, raw_val::ConversionError>"]**
  %_21.i.i1 = load [0 x %"core::result::Result<stellar_xdr::next::generated::ScVal, raw_val::ConversionError>"]*, [0 x %"core::result::Result<stellar_xdr::next::generated::ScVal, raw_val::ConversionError>"]** %1, align 8, !alias.scope !553, !nonnull !123
  %2 = getelementptr inbounds %"alloc::vec::Vec<alloc::rc::Rc<dyn soroban_env_verification::host::ContractFunctionSet>>", %"alloc::vec::Vec<alloc::rc::Rc<dyn soroban_env_verification::host::ContractFunctionSet>>"* %self, i64 0, i32 1
  %_5 = load i64, i64* %2, align 8
  %3 = getelementptr [0 x %"core::result::Result<stellar_xdr::next::generated::ScVal, raw_val::ConversionError>"], [0 x %"core::result::Result<stellar_xdr::next::generated::ScVal, raw_val::ConversionError>"]* %_21.i.i1, i64 0, i64 0
  %_10.i = getelementptr inbounds [0 x %"core::result::Result<stellar_xdr::next::generated::ScVal, raw_val::ConversionError>"], [0 x %"core::result::Result<stellar_xdr::next::generated::ScVal, raw_val::ConversionError>"]* %_21.i.i1, i64 0, i64 %_5
  br label %bb6.i

bb6.i:                                            ; preds = %bb5.i, %start
  %_9.0.i = phi %"core::result::Result<stellar_xdr::next::generated::ScVal, raw_val::ConversionError>"* [ %3, %start ], [ %4, %bb5.i ]
  %_14.i = icmp eq %"core::result::Result<stellar_xdr::next::generated::ScVal, raw_val::ConversionError>"* %_9.0.i, %_10.i
  br i1 %_14.i, label %"_ZN4core3ptr66drop_in_place$LT$$u5b$stellar_xdr..next..generated..ScVal$u5d$$GT$17h99f9463318fab704E.exit", label %bb5.i

bb5.i:                                            ; preds = %bb6.i
  %4 = getelementptr inbounds %"core::result::Result<stellar_xdr::next::generated::ScVal, raw_val::ConversionError>", %"core::result::Result<stellar_xdr::next::generated::ScVal, raw_val::ConversionError>"* %_9.0.i, i64 1
  tail call fastcc void @"_ZN4core3ptr56drop_in_place$LT$stellar_xdr..next..generated..ScVal$GT$17h044a29ff334c2310E"(%"core::result::Result<stellar_xdr::next::generated::ScVal, raw_val::ConversionError>"* %_9.0.i) #23
  br label %bb6.i

"_ZN4core3ptr66drop_in_place$LT$$u5b$stellar_xdr..next..generated..ScVal$u5d$$GT$17h99f9463318fab704E.exit": ; preds = %bb6.i
  ret void
}

; Function Attrs: minsize mustprogress nounwind nonlazybind optsize willreturn
define internal fastcc void @"_ZN77_$LT$alloc..raw_vec..RawVec$LT$T$C$A$GT$$u20$as$u20$core..ops..drop..Drop$GT$4drop17h91fd7550336a87d5E"({ i64, i64* }* noalias nocapture noundef readonly align 8 dereferenceable(16) %self) unnamed_addr #12 {
start:
  %0 = getelementptr inbounds { i64, i64* }, { i64, i64* }* %self, i64 0, i32 0
  %_4.i = load i64, i64* %0, align 8, !alias.scope !558, !noalias !561
  %_3.i = icmp eq i64 %_4.i, 0
  br i1 %_3.i, label %bb4, label %bb2

bb2:                                              ; preds = %start
  %_6.i.i.i = icmp ult i64 %_4.i, 230584300921369396
  %array_size.i.i.i = mul nuw nsw i64 %_4.i, 40
  tail call void @llvm.assume(i1 %_6.i.i.i) #23
  %1 = getelementptr inbounds { i64, i64* }, { i64, i64* }* %self, i64 0, i32 1
  %2 = bitcast i64** %1 to i8**
  %_116.i = load i8*, i8** %2, align 8, !alias.scope !558, !noalias !561, !nonnull !123
  tail call fastcc void @"_ZN63_$LT$alloc..alloc..Global$u20$as$u20$core..alloc..Allocator$GT$10deallocate17ha005437c24434b98E.127"(i8* noundef nonnull %_116.i, i64 %array_size.i.i.i) #23
  br label %bb4

bb4:                                              ; preds = %bb2, %start
  ret void
}

; Function Attrs: minsize nounwind nonlazybind optsize
define internal fastcc void @"_ZN70_$LT$alloc..vec..Vec$LT$T$C$A$GT$$u20$as$u20$core..ops..drop..Drop$GT$4drop17h5de65dbe718275d7E"(%"alloc::vec::Vec<alloc::rc::Rc<dyn soroban_env_verification::host::ContractFunctionSet>>"* noalias nocapture noundef readonly align 8 dereferenceable(24) %self) unnamed_addr #0 {
start:
  %0 = getelementptr inbounds %"alloc::vec::Vec<alloc::rc::Rc<dyn soroban_env_verification::host::ContractFunctionSet>>", %"alloc::vec::Vec<alloc::rc::Rc<dyn soroban_env_verification::host::ContractFunctionSet>>"* %self, i64 0, i32 0, i32 1
  %1 = bitcast i64** %0 to [0 x %"stellar_xdr::next::generated::ScMapEntry"]**
  %_21.i.i1 = load [0 x %"stellar_xdr::next::generated::ScMapEntry"]*, [0 x %"stellar_xdr::next::generated::ScMapEntry"]** %1, align 8, !alias.scope !563, !nonnull !123
  %2 = getelementptr inbounds %"alloc::vec::Vec<alloc::rc::Rc<dyn soroban_env_verification::host::ContractFunctionSet>>", %"alloc::vec::Vec<alloc::rc::Rc<dyn soroban_env_verification::host::ContractFunctionSet>>"* %self, i64 0, i32 1
  %_5 = load i64, i64* %2, align 8
  %3 = getelementptr [0 x %"stellar_xdr::next::generated::ScMapEntry"], [0 x %"stellar_xdr::next::generated::ScMapEntry"]* %_21.i.i1, i64 0, i64 0
  %_10.i = getelementptr inbounds [0 x %"stellar_xdr::next::generated::ScMapEntry"], [0 x %"stellar_xdr::next::generated::ScMapEntry"]* %_21.i.i1, i64 0, i64 %_5
  br label %bb6.i

bb6.i:                                            ; preds = %bb5.i, %start
  %_9.0.i = phi %"stellar_xdr::next::generated::ScMapEntry"* [ %3, %start ], [ %4, %bb5.i ]
  %_14.i = icmp eq %"stellar_xdr::next::generated::ScMapEntry"* %_9.0.i, %_10.i
  br i1 %_14.i, label %"_ZN4core3ptr71drop_in_place$LT$$u5b$stellar_xdr..next..generated..ScMapEntry$u5d$$GT$17hf01d030cb585b7e4E.exit", label %bb5.i

bb5.i:                                            ; preds = %bb6.i
  %4 = getelementptr inbounds %"stellar_xdr::next::generated::ScMapEntry", %"stellar_xdr::next::generated::ScMapEntry"* %_9.0.i, i64 1
  %5 = getelementptr %"stellar_xdr::next::generated::ScMapEntry", %"stellar_xdr::next::generated::ScMapEntry"* %_9.0.i, i64 0, i32 0
  tail call fastcc void @"_ZN4core3ptr56drop_in_place$LT$stellar_xdr..next..generated..ScVal$GT$17h044a29ff334c2310E"(%"core::result::Result<stellar_xdr::next::generated::ScVal, raw_val::ConversionError>"* %5) #23
  %6 = getelementptr inbounds %"stellar_xdr::next::generated::ScMapEntry", %"stellar_xdr::next::generated::ScMapEntry"* %_9.0.i, i64 0, i32 1
  tail call fastcc void @"_ZN4core3ptr56drop_in_place$LT$stellar_xdr..next..generated..ScVal$GT$17h044a29ff334c2310E"(%"core::result::Result<stellar_xdr::next::generated::ScVal, raw_val::ConversionError>"* nonnull %6) #23
  br label %bb6.i

"_ZN4core3ptr71drop_in_place$LT$$u5b$stellar_xdr..next..generated..ScMapEntry$u5d$$GT$17hf01d030cb585b7e4E.exit": ; preds = %bb6.i
  ret void
}

; Function Attrs: minsize mustprogress nounwind nonlazybind optsize willreturn
define internal fastcc void @"_ZN77_$LT$alloc..raw_vec..RawVec$LT$T$C$A$GT$$u20$as$u20$core..ops..drop..Drop$GT$4drop17hb61eb43314d6f0a2E"({ i64, i64* }* noalias nocapture noundef readonly align 8 dereferenceable(16) %self) unnamed_addr #12 {
start:
  %0 = getelementptr inbounds { i64, i64* }, { i64, i64* }* %self, i64 0, i32 0
  %_4.i = load i64, i64* %0, align 8, !alias.scope !568, !noalias !571
  %_3.i = icmp eq i64 %_4.i, 0
  br i1 %_3.i, label %bb4, label %bb2

bb2:                                              ; preds = %start
  %_6.i.i.i = icmp ult i64 %_4.i, 115292150460684698
  %array_size.i.i.i = mul nuw nsw i64 %_4.i, 80
  tail call void @llvm.assume(i1 %_6.i.i.i) #23
  %1 = getelementptr inbounds { i64, i64* }, { i64, i64* }* %self, i64 0, i32 1
  %2 = bitcast i64** %1 to i8**
  %_116.i = load i8*, i8** %2, align 8, !alias.scope !568, !noalias !571, !nonnull !123
  tail call fastcc void @"_ZN63_$LT$alloc..alloc..Global$u20$as$u20$core..alloc..Allocator$GT$10deallocate17ha005437c24434b98E.127"(i8* noundef nonnull %_116.i, i64 %array_size.i.i.i) #23
  br label %bb4

bb4:                                              ; preds = %bb2, %start
  ret void
}

; Function Attrs: minsize noinline nounwind nonlazybind optsize
define internal fastcc void @"_ZN5alloc7raw_vec19RawVec$LT$T$C$A$GT$16reserve_for_push17h320b32110cb2d30eE"({ i64, i64* }* noalias nocapture noundef align 8 dereferenceable(16) %self, i64 %len) unnamed_addr #5 {
start:
  %_30.i = alloca %"core::option::Option<(core::ptr::non_null::NonNull<u8>, core::alloc::layout::Layout)>", align 8
  %_28.i = alloca %"core::result::Result<core::ptr::non_null::NonNull<[u8]>, collections::TryReserveError>", align 8
  tail call void @llvm.experimental.noalias.scope.decl(metadata !573)
  %0 = tail call { i64, i1 } @llvm.uadd.with.overflow.i64(i64 %len, i64 1) #23
  %1 = extractvalue { i64, i1 } %0, 0
  %2 = extractvalue { i64, i1 } %0, 1
  br i1 %2, label %bb5.i, label %bb7.i

bb7.i:                                            ; preds = %start
  %3 = getelementptr inbounds { i64, i64* }, { i64, i64* }* %self, i64 0, i32 0
  %_20.i = load i64, i64* %3, align 8, !alias.scope !573
  %_19.i = shl i64 %_20.i, 1
  %4 = icmp ugt i64 %_19.i, %1
  %.0.sroa.speculated.i.i.i = select i1 %4, i64 %_19.i, i64 %1
  %5 = icmp ugt i64 %.0.sroa.speculated.i.i.i, 4
  %.0.sroa.speculated.i.i10.i = select i1 %5, i64 %.0.sroa.speculated.i.i.i, i64 4
  %_6.i.i.i = icmp ugt i64 %.0.sroa.speculated.i.i10.i, 230584300921369395
  %array_size.i.i.i = mul i64 %.0.sroa.speculated.i.i10.i, 40
  %spec.select.i.i.i = select i1 %_6.i.i.i, i64 0, i64 8
  %spec.select1.i.i.i = select i1 %_6.i.i.i, i64 undef, i64 %array_size.i.i.i
  %6 = bitcast %"core::result::Result<core::ptr::non_null::NonNull<[u8]>, collections::TryReserveError>"* %_28.i to i8*
  call void @llvm.lifetime.start.p0i8(i64 24, i8* nonnull %6) #23, !noalias !573
  %7 = bitcast %"core::option::Option<(core::ptr::non_null::NonNull<u8>, core::alloc::layout::Layout)>"* %_30.i to i8*
  call void @llvm.lifetime.start.p0i8(i64 24, i8* nonnull %7) #23, !noalias !573
  tail call void @llvm.experimental.noalias.scope.decl(metadata !576) #23
  tail call void @llvm.experimental.noalias.scope.decl(metadata !579) #23
  %_3.i.i = icmp eq i64 %_20.i, 0
  br i1 %_3.i.i, label %"_ZN5alloc7raw_vec19RawVec$LT$T$C$A$GT$14current_memory17h79898d37b3391cfeE.exit.i", label %bb5.i.i

bb5.i.i:                                          ; preds = %bb7.i
  %_6.i.i.i.i = icmp ult i64 %_20.i, 230584300921369396
  %array_size.i.i.i.i = mul nuw nsw i64 %_20.i, 40
  tail call void @llvm.assume(i1 %_6.i.i.i.i) #23
  %8 = getelementptr inbounds { i64, i64* }, { i64, i64* }* %self, i64 0, i32 1
  %9 = bitcast i64** %8 to i8**
  %_116.i.i = load i8*, i8** %9, align 8, !alias.scope !581, !noalias !576, !nonnull !123
  %_8.sroa.0.0..sroa_idx.i.i = bitcast %"core::option::Option<(core::ptr::non_null::NonNull<u8>, core::alloc::layout::Layout)>"* %_30.i to i8**
  store i8* %_116.i.i, i8** %_8.sroa.0.0..sroa_idx.i.i, align 8, !alias.scope !576, !noalias !581
  %10 = getelementptr inbounds %"core::option::Option<(core::ptr::non_null::NonNull<u8>, core::alloc::layout::Layout)>", %"core::option::Option<(core::ptr::non_null::NonNull<u8>, core::alloc::layout::Layout)>"* %_30.i, i64 0, i32 0, i64 1
  store i64 %array_size.i.i.i.i, i64* %10, align 8, !alias.scope !576, !noalias !581
  br label %"_ZN5alloc7raw_vec19RawVec$LT$T$C$A$GT$14current_memory17h79898d37b3391cfeE.exit.i"

"_ZN5alloc7raw_vec19RawVec$LT$T$C$A$GT$14current_memory17h79898d37b3391cfeE.exit.i": ; preds = %bb5.i.i, %bb7.i
  %.sink.i.i = phi i64 [ 8, %bb5.i.i ], [ 0, %bb7.i ]
  %11 = getelementptr inbounds %"core::option::Option<(core::ptr::non_null::NonNull<u8>, core::alloc::layout::Layout)>", %"core::option::Option<(core::ptr::non_null::NonNull<u8>, core::alloc::layout::Layout)>"* %_30.i, i64 0, i32 1
  store i64 %.sink.i.i, i64* %11, align 8, !alias.scope !576, !noalias !581
  call fastcc void @_ZN5alloc7raw_vec11finish_grow17h94af1062a405315aE(%"core::result::Result<core::ptr::non_null::NonNull<[u8]>, collections::TryReserveError>"* noalias nocapture noundef nonnull dereferenceable(24) %_28.i, i64 %spec.select1.i.i.i, i64 noundef %spec.select.i.i.i, %"core::option::Option<(core::ptr::non_null::NonNull<u8>, core::alloc::layout::Layout)>"* noalias nocapture noundef nonnull readonly dereferenceable(24) %_30.i) #23, !noalias !573
  call void @llvm.lifetime.end.p0i8(i64 24, i8* nonnull %7) #23, !noalias !573
  %12 = getelementptr inbounds %"core::result::Result<core::ptr::non_null::NonNull<[u8]>, collections::TryReserveError>", %"core::result::Result<core::ptr::non_null::NonNull<[u8]>, collections::TryReserveError>"* %_28.i, i64 0, i32 0
  %_2.i.i = load i64, i64* %12, align 8, !range !371, !alias.scope !582, !noalias !585, !noundef !123
  %trunc.not.i.i = icmp eq i64 %_2.i.i, 0
  br i1 %trunc.not.i.i, label %"_ZN5alloc7raw_vec19RawVec$LT$T$C$A$GT$14grow_amortized17h94bc9d09c1f63a96E.exit.thread", label %"_ZN5alloc7raw_vec19RawVec$LT$T$C$A$GT$14grow_amortized17h94bc9d09c1f63a96E.exit"

"_ZN5alloc7raw_vec19RawVec$LT$T$C$A$GT$14grow_amortized17h94bc9d09c1f63a96E.exit.thread": ; preds = %"_ZN5alloc7raw_vec19RawVec$LT$T$C$A$GT$14current_memory17h79898d37b3391cfeE.exit.i"
  %13 = getelementptr inbounds %"core::result::Result<core::ptr::non_null::NonNull<[u8]>, collections::TryReserveError>", %"core::result::Result<core::ptr::non_null::NonNull<[u8]>, collections::TryReserveError>"* %_28.i, i64 0, i32 1
  %14 = bitcast [2 x i64]* %13 to i8**
  %v.0.i33.i = load i8*, i8** %14, align 8, !alias.scope !582, !noalias !585, !nonnull !123
  call void @llvm.lifetime.end.p0i8(i64 24, i8* nonnull %6) #23, !noalias !573
  %15 = getelementptr inbounds { i64, i64* }, { i64, i64* }* %self, i64 0, i32 1
  %16 = bitcast i64** %15 to i8**
  store i8* %v.0.i33.i, i8** %16, align 8, !alias.scope !587
  store i64 %.0.sroa.speculated.i.i10.i, i64* %3, align 8, !alias.scope !587
  br label %_ZN5alloc7raw_vec14handle_reserve17h0ec43d4a9324f3feE.122.exit

"_ZN5alloc7raw_vec19RawVec$LT$T$C$A$GT$14grow_amortized17h94bc9d09c1f63a96E.exit": ; preds = %"_ZN5alloc7raw_vec19RawVec$LT$T$C$A$GT$14current_memory17h79898d37b3391cfeE.exit.i"
  %17 = getelementptr inbounds %"core::result::Result<core::ptr::non_null::NonNull<[u8]>, collections::TryReserveError>", %"core::result::Result<core::ptr::non_null::NonNull<[u8]>, collections::TryReserveError>"* %_28.i, i64 0, i32 1, i64 1
  %e.1.i.i = load i64, i64* %17, align 8, !range !380, !alias.scope !582, !noalias !585, !noundef !123
  call void @llvm.lifetime.end.p0i8(i64 24, i8* nonnull %6) #23, !noalias !573
  switch i64 %e.1.i.i, label %bb6.i [
    i64 -9223372036854775807, label %_ZN5alloc7raw_vec14handle_reserve17h0ec43d4a9324f3feE.122.exit
    i64 0, label %bb5.i
  ]

bb5.i:                                            ; preds = %"_ZN5alloc7raw_vec19RawVec$LT$T$C$A$GT$14grow_amortized17h94bc9d09c1f63a96E.exit", %start
  tail call void @llvm.trap() #23
  unreachable

bb6.i:                                            ; preds = %"_ZN5alloc7raw_vec19RawVec$LT$T$C$A$GT$14grow_amortized17h94bc9d09c1f63a96E.exit"
  tail call void @llvm.trap() #23
  unreachable

_ZN5alloc7raw_vec14handle_reserve17h0ec43d4a9324f3feE.122.exit: ; preds = %"_ZN5alloc7raw_vec19RawVec$LT$T$C$A$GT$14grow_amortized17h94bc9d09c1f63a96E.exit", %"_ZN5alloc7raw_vec19RawVec$LT$T$C$A$GT$14grow_amortized17h94bc9d09c1f63a96E.exit.thread"
  ret void
}

; Function Attrs: nofree nosync nounwind readnone speculatable willreturn
declare { i64, i1 } @llvm.uadd.with.overflow.i64(i64, i64) #8

; Function Attrs: minsize mustprogress nofree noinline nounwind nonlazybind optsize willreturn
define internal fastcc void @_ZN5alloc7raw_vec11finish_grow17h94af1062a405315aE(%"core::result::Result<core::ptr::non_null::NonNull<[u8]>, collections::TryReserveError>"* noalias nocapture noundef writeonly dereferenceable(24) %0, i64 %new_layout.0, i64 noundef %new_layout.1, %"core::option::Option<(core::ptr::non_null::NonNull<u8>, core::alloc::layout::Layout)>"* noalias nocapture noundef readonly dereferenceable(24) %current_memory) unnamed_addr #14 {
start:
  %1 = icmp eq i64 %new_layout.1, 0
  br i1 %1, label %bb5, label %bb3

bb3:                                              ; preds = %start
  %2 = getelementptr inbounds %"core::option::Option<(core::ptr::non_null::NonNull<u8>, core::alloc::layout::Layout)>", %"core::option::Option<(core::ptr::non_null::NonNull<u8>, core::alloc::layout::Layout)>"* %current_memory, i64 0, i32 1
  %3 = load i64, i64* %2, align 8, !range !380, !noundef !123
  %.not = icmp eq i64 %3, 0
  br i1 %.not, label %bb14, label %bb15

bb5:                                              ; preds = %start
  %4 = getelementptr inbounds %"core::result::Result<core::ptr::non_null::NonNull<[u8]>, collections::TryReserveError>", %"core::result::Result<core::ptr::non_null::NonNull<[u8]>, collections::TryReserveError>"* %0, i64 0, i32 1, i64 0
  store i64 %new_layout.0, i64* %4, align 8, !alias.scope !590
  br label %bb23

bb23:                                             ; preds = %bb1.i, %bb3.i20, %bb5
  %.sink1.i.sink = phi i64 [ 0, %bb5 ], [ %new_layout.1, %bb1.i ], [ %memory.sroa.5.0, %bb3.i20 ]
  %.sink.i21.sink = phi i64 [ 1, %bb5 ], [ 1, %bb1.i ], [ 0, %bb3.i20 ]
  %5 = getelementptr inbounds %"core::result::Result<core::ptr::non_null::NonNull<[u8]>, collections::TryReserveError>", %"core::result::Result<core::ptr::non_null::NonNull<[u8]>, collections::TryReserveError>"* %0, i64 0, i32 1, i64 1
  store i64 %.sink1.i.sink, i64* %5, align 8
  %6 = getelementptr inbounds %"core::result::Result<core::ptr::non_null::NonNull<[u8]>, collections::TryReserveError>", %"core::result::Result<core::ptr::non_null::NonNull<[u8]>, collections::TryReserveError>"* %0, i64 0, i32 0
  store i64 %.sink.i21.sink, i64* %6, align 8
  ret void

bb15:                                             ; preds = %bb3
  %7 = bitcast %"core::option::Option<(core::ptr::non_null::NonNull<u8>, core::alloc::layout::Layout)>"* %current_memory to i8**
  %ptr = load i8*, i8** %7, align 8, !nonnull !123, !noundef !123
  %8 = getelementptr inbounds %"core::option::Option<(core::ptr::non_null::NonNull<u8>, core::alloc::layout::Layout)>", %"core::option::Option<(core::ptr::non_null::NonNull<u8>, core::alloc::layout::Layout)>"* %current_memory, i64 0, i32 0, i64 1
  %9 = load i64, i64* %8, align 8
  %_28 = icmp eq i64 %3, %new_layout.1
  tail call void @llvm.assume(i1 %_28)
  %10 = icmp eq i64 %9, 0
  br i1 %10, label %bb2.i.i, label %bb7.i.i

bb2.i.i:                                          ; preds = %bb15
  %11 = tail call fastcc { i8*, i64 } @_ZN5alloc5alloc6Global10alloc_impl17hac948e35c53147c3E(i64 %new_layout.0, i64 noundef %new_layout.1) #23
  %.fca.0.extract5.i.i = extractvalue { i8*, i64 } %11, 0
  %.fca.1.extract7.i.i = extractvalue { i8*, i64 } %11, 1
  br label %"_ZN63_$LT$alloc..alloc..Global$u20$as$u20$core..alloc..Allocator$GT$4grow17h6a13d2958cab50c6E.exit"

bb7.i.i:                                          ; preds = %bb15
  %_20.i.i = icmp ule i64 %9, %new_layout.0
  tail call void @llvm.assume(i1 %_20.i.i) #23
  %_5.i.i.i = tail call i8* @malloc(i64 %new_layout.0) #23
  %12 = icmp ult i64 %9, %new_layout.0
  %.0.sroa.speculated.i.i.i.i.i = select i1 %12, i64 %9, i64 %new_layout.0
  tail call void @llvm.memcpy.p0i8.p0i8.i64(i8* align 1 %_5.i.i.i, i8* nonnull align 1 %ptr, i64 %.0.sroa.speculated.i.i.i.i.i, i1 false) #23
  %13 = icmp eq i8* %_5.i.i.i, null
  %spec.select.i.i = select i1 %13, i64 undef, i64 %new_layout.0
  br label %"_ZN63_$LT$alloc..alloc..Global$u20$as$u20$core..alloc..Allocator$GT$4grow17h6a13d2958cab50c6E.exit"

"_ZN63_$LT$alloc..alloc..Global$u20$as$u20$core..alloc..Allocator$GT$4grow17h6a13d2958cab50c6E.exit": ; preds = %bb7.i.i, %bb2.i.i
  %.sroa.6.0.i.i = phi i64 [ %.fca.1.extract7.i.i, %bb2.i.i ], [ %spec.select.i.i, %bb7.i.i ]
  %.sroa.0.0.i.i = phi i8* [ %.fca.0.extract5.i.i, %bb2.i.i ], [ %_5.i.i.i, %bb7.i.i ]
  %14 = insertvalue { i8*, i64 } undef, i8* %.sroa.0.0.i.i, 0
  %15 = insertvalue { i8*, i64 } %14, i64 %.sroa.6.0.i.i, 1
  br label %bb20

bb14:                                             ; preds = %bb3
  %16 = tail call fastcc { i8*, i64 } @_ZN5alloc5alloc6Global10alloc_impl17hac948e35c53147c3E(i64 %new_layout.0, i64 noundef %new_layout.1) #23
  br label %bb20

bb20:                                             ; preds = %bb14, %"_ZN63_$LT$alloc..alloc..Global$u20$as$u20$core..alloc..Allocator$GT$4grow17h6a13d2958cab50c6E.exit"
  %.pn = phi { i8*, i64 } [ %15, %"_ZN63_$LT$alloc..alloc..Global$u20$as$u20$core..alloc..Allocator$GT$4grow17h6a13d2958cab50c6E.exit" ], [ %16, %bb14 ]
  %memory.sroa.0.0 = extractvalue { i8*, i64 } %.pn, 0
  %17 = icmp eq i8* %memory.sroa.0.0, null
  br i1 %17, label %bb1.i, label %bb3.i20

bb3.i20:                                          ; preds = %bb20
  %memory.sroa.5.0 = extractvalue { i8*, i64 } %.pn, 1
  %18 = getelementptr inbounds %"core::result::Result<core::ptr::non_null::NonNull<[u8]>, collections::TryReserveError>", %"core::result::Result<core::ptr::non_null::NonNull<[u8]>, collections::TryReserveError>"* %0, i64 0, i32 1
  %19 = bitcast [2 x i64]* %18 to i8**
  store i8* %memory.sroa.0.0, i8** %19, align 8, !alias.scope !593, !noalias !596
  br label %bb23

bb1.i:                                            ; preds = %bb20
  %20 = getelementptr inbounds %"core::result::Result<core::ptr::non_null::NonNull<[u8]>, collections::TryReserveError>", %"core::result::Result<core::ptr::non_null::NonNull<[u8]>, collections::TryReserveError>"* %0, i64 0, i32 1, i64 0
  store i64 %new_layout.0, i64* %20, align 8, !alias.scope !593, !noalias !596
  br label %bb23
}

; Function Attrs: inlinehint minsize mustprogress nofree nounwind nonlazybind optsize willreturn
define internal fastcc { i8*, i64 } @_ZN5alloc5alloc6Global10alloc_impl17hac948e35c53147c3E(i64 %0, i64 noundef %1) unnamed_addr #15 {
start:
  %2 = icmp eq i64 %0, 0
  br i1 %2, label %bb3, label %bb8

bb3:                                              ; preds = %start
  %3 = inttoptr i64 %1 to i8*
  br label %bb20

bb8:                                              ; preds = %start
  %_3.i.i.i = tail call i8* @malloc(i64 %0) #23
  br label %bb20

bb20:                                             ; preds = %bb8, %bb3
  %.sroa.0.0 = phi i8* [ %3, %bb3 ], [ %_3.i.i.i, %bb8 ]
  %4 = insertvalue { i8*, i64 } undef, i8* %.sroa.0.0, 0
  %5 = insertvalue { i8*, i64 } %4, i64 %0, 1
  ret { i8*, i64 } %5
}

; Function Attrs: inlinehint minsize mustprogress nofree norecurse nosync nounwind nonlazybind optsize readnone willreturn
define internal void @"_ZN4core3ptr136drop_in_place$LT$soroban_sdk..env..Env..register_contract..InternalContractFunctionSet$LT$nostd_test_contract..IncrementContract$GT$$GT$17h359c32ac669a0c1cE"(%"soroban_sdk::env::Env::register_contract::InternalContractFunctionSet<IncrementContract>"* nocapture %_1) unnamed_addr #16 {
start:
  ret void
}

; Function Attrs: minsize nounwind nonlazybind optsize
define internal { i64, i64 } @"_ZN150_$LT$soroban_sdk..env..Env..register_contract..InternalContractFunctionSet$LT$T$GT$$u20$as$u20$soroban_env_verification..host..ContractFunctionSet$GT$4call17h5541ab14ad760c91E"(%"soroban_sdk::env::Env::register_contract::InternalContractFunctionSet<IncrementContract>"* noalias nocapture noundef nonnull readonly align 1 %self, i64* noalias nocapture noundef readonly align 8 dereferenceable(8) %func, i64** noalias nocapture noundef readonly align 8 dereferenceable(8) %env_impl, [0 x i64]* noalias nocapture noundef nonnull readonly align 8 %args.0, i64 %args.1) unnamed_addr #0 {
start:
  %old_slot.i.i.i.i = alloca { i64*, i64* }, align 8
  %_3.i.i.i.i.i.i22 = alloca %"core::result::Result<stellar_xdr::next::generated::ScVal, raw_val::ConversionError>", align 8
  %_7.i.i.i.i = alloca %"core::result::Result<stellar_xdr::next::generated::ScVal, raw_val::ConversionError>", align 8
  %_4.i.i2.i.i = alloca { i64, i8* }, align 8
  %_7.i.i.i = alloca %"core::result::Result<stellar_xdr::next::generated::ScVal, raw_val::ConversionError>", align 8
  %_6.sroa.4.i.i.i = alloca [39 x i8], align 1
  %_15.i.i = alloca %"core::result::Result<stellar_xdr::next::generated::ScVal, raw_val::ConversionError>", align 8
  %_14.i.i = alloca %"core::result::Result<stellar_xdr::next::generated::ScVal, raw_val::ConversionError>", align 8
  %_7.i.i = alloca %"core::result::Result<stellar_xdr::next::generated::ScVal, raw_val::ConversionError>", align 8
  %_6.i.i = alloca %"core::result::Result<stellar_xdr::next::generated::ScVal, raw_val::ConversionError>", align 8
  %_4.i.i14 = alloca %"core::result::Result<stellar_xdr::next::generated::ScVal, raw_val::ConversionError>", align 8
  %key.i.i = alloca %"core::result::Result<stellar_xdr::next::generated::ScVal, raw_val::ConversionError>", align 8
  %iter.i = alloca { i64, i64 }, align 8
  %chars.i = alloca [10 x i8], align 1
  %_12.i.i.i.i = alloca i64*, align 8
  %_5.i.i.i.i = alloca i64*, align 8
  %env.i.i.i.i = alloca i64*, align 8
  %env.i.i.i = alloca i64*, align 8
  %_8.i = alloca %"soroban_env_common::symbol::SymbolStr", align 1
  %env.i = alloca i64*, align 8
  tail call void @llvm.experimental.noalias.scope.decl(metadata !598)
  tail call void @llvm.experimental.noalias.scope.decl(metadata !601) #23
  %0 = bitcast i64** %env_impl to %"alloc::rc::RcBox<soroban_env_verification::host::HostImpl>"**
  %_31.i.i.i.i = load %"alloc::rc::RcBox<soroban_env_verification::host::HostImpl>"*, %"alloc::rc::RcBox<soroban_env_verification::host::HostImpl>"** %0, align 8, !alias.scope !604, !nonnull !123
  %1 = getelementptr %"alloc::rc::RcBox<soroban_env_verification::host::HostImpl>", %"alloc::rc::RcBox<soroban_env_verification::host::HostImpl>"* %_31.i.i.i.i, i64 0, i32 0
  %2 = load i64, i64* %1, align 8, !noalias !609
  %_4.i.i.i = icmp ne i64 %2, 0
  tail call void @llvm.assume(i1 %_4.i.i.i) #23
  %3 = add i64 %2, 1
  store i64 %3, i64* %1, align 8, !alias.scope !610, !noalias !609
  %_14.i.i.i = icmp eq i64 %3, 0
  br i1 %_14.i.i.i, label %bb6.i.i.i, label %"_ZN75_$LT$soroban_env_verification..host..Host$u20$as$u20$core..clone..Clone$GT$5clone17hb79718edf21da39aE.exit"

bb6.i.i.i:                                        ; preds = %start
  tail call void @llvm.trap() #23, !noalias !609
  unreachable

"_ZN75_$LT$soroban_env_verification..host..Host$u20$as$u20$core..clone..Clone$GT$5clone17hb79718edf21da39aE.exit": ; preds = %start
  %4 = bitcast i64** %env.i to i8*
  call void @llvm.lifetime.start.p0i8(i64 8, i8* nonnull %4)
  store i64* %1, i64** %env.i, align 8, !noalias !613
  %5 = getelementptr inbounds %"soroban_env_common::symbol::SymbolStr", %"soroban_env_common::symbol::SymbolStr"* %_8.i, i64 0, i32 0, i64 0
  call void @llvm.lifetime.start.p0i8(i64 10, i8* nonnull %5) #23, !noalias !613
  tail call void @llvm.experimental.noalias.scope.decl(metadata !616)
  %6 = getelementptr inbounds [10 x i8], [10 x i8]* %chars.i, i64 0, i64 0
  call void @llvm.lifetime.start.p0i8(i64 10, i8* nonnull %6) #23, !noalias !619
  call void @llvm.memset.p0i8.i64(i8* noundef nonnull align 1 dereferenceable(10) %6, i8 0, i64 10, i1 false) #23, !noalias !619
  %_6.i = load i64, i64* %func, align 8, !alias.scope !616, !noalias !621
  %7 = lshr i64 %_6.i, 4
  %8 = bitcast { i64, i64 }* %iter.i to i8*
  call void @llvm.lifetime.start.p0i8(i64 16, i8* nonnull %8) #23, !noalias !619
  %9 = getelementptr inbounds { i64, i64 }, { i64, i64 }* %iter.i, i64 0, i32 0
  store i64 %7, i64* %9, align 8, !noalias !619
  %10 = getelementptr inbounds { i64, i64 }, { i64, i64 }* %iter.i, i64 0, i32 1
  store i64 0, i64* %10, align 8, !noalias !619
  br label %bb4.i

bb4.i:                                            ; preds = %bb9.i1, %"_ZN75_$LT$soroban_env_verification..host..Host$u20$as$u20$core..clone..Clone$GT$5clone17hb79718edf21da39aE.exit"
  %_4.i.i = call fastcc noundef i32 @"_ZN97_$LT$soroban_env_common..symbol..SymbolIter$u20$as$u20$core..iter..traits..iterator..Iterator$GT$4next17h4314665d7c0acf8aE"(i64* noalias noundef nonnull align 8 dereferenceable(8) %9) #23, !range !622, !noalias !619
  %11 = icmp eq i32 %_4.i.i, 1114112
  br i1 %11, label %_ZN18soroban_env_common6symbol6Symbol6to_str17h30807c7c6851b7a1E.exit, label %bb6.i

bb6.i:                                            ; preds = %bb4.i
  %i.i.i = load i64, i64* %10, align 8, !alias.scope !623, !noalias !619
  %_11.0.i.i = add i64 %i.i.i, 1
  store i64 %_11.0.i.i, i64* %10, align 8, !alias.scope !623, !noalias !619
  %_17.i = icmp ult i64 %i.i.i, 10
  br i1 %_17.i, label %bb9.i1, label %panic.i, !prof !626

bb9.i1:                                           ; preds = %bb6.i
  %12 = getelementptr inbounds [10 x i8], [10 x i8]* %chars.i, i64 0, i64 %i.i.i
  %13 = trunc i32 %_4.i.i to i8
  store i8 %13, i8* %12, align 1, !noalias !619
  br label %bb4.i

panic.i:                                          ; preds = %bb6.i
  tail call void @llvm.trap() #23, !noalias !619
  unreachable

_ZN18soroban_env_common6symbol6Symbol6to_str17h30807c7c6851b7a1E.exit: ; preds = %bb4.i
  call void @llvm.lifetime.end.p0i8(i64 16, i8* nonnull %8) #23, !noalias !619
  call void @llvm.memcpy.p0i8.p0i8.i64(i8* noundef nonnull align 1 dereferenceable(10) %5, i8* noundef nonnull align 1 dereferenceable(10) %6, i64 10, i1 false) #23, !noalias !616
  call void @llvm.lifetime.end.p0i8(i64 10, i8* nonnull %6) #23, !noalias !619
  %14 = getelementptr inbounds %"soroban_env_common::symbol::SymbolStr", %"soroban_env_common::symbol::SymbolStr"* %_8.i, i64 1, i32 0, i64 0
  br label %bb4.i.i.i

bb4.i.i.i:                                        ; preds = %bb6.i.i.i2, %_ZN18soroban_env_common6symbol6Symbol6to_str17h30807c7c6851b7a1E.exit
  %iter.sroa.5.0.i.i.i = phi i8* [ %5, %_ZN18soroban_env_common6symbol6Symbol6to_str17h30807c7c6851b7a1E.exit ], [ %15, %bb6.i.i.i2 ]
  %iter.sroa.7.0.i.i.i = phi i64 [ 0, %_ZN18soroban_env_common6symbol6Symbol6to_str17h30807c7c6851b7a1E.exit ], [ %_11.0.i.i.i.i, %bb6.i.i.i2 ]
  %_10.i.i.i.i.i = icmp eq i8* %iter.sroa.5.0.i.i.i, %14
  br i1 %_10.i.i.i.i.i, label %"_ZN89_$LT$soroban_env_common..symbol..SymbolStr$u20$as$u20$core..convert..AsRef$LT$str$GT$$GT$6as_ref17h672d462a0041b138E.exit", label %bb6.i.i.i2

bb6.i.i.i2:                                       ; preds = %bb4.i.i.i
  %15 = getelementptr inbounds i8, i8* %iter.sroa.5.0.i.i.i, i64 1
  %_11.0.i.i.i.i = add nuw nsw i64 %iter.sroa.7.0.i.i.i, 1
  %_16.i.i.i = load i8, i8* %iter.sroa.5.0.i.i.i, align 1
  %16 = icmp eq i8 %_16.i.i.i, 0
  br i1 %16, label %_ZN18soroban_env_common6symbol9SymbolStr3len17h5b4707180f497290E.exit.i.i, label %bb4.i.i.i

_ZN18soroban_env_common6symbol9SymbolStr3len17h5b4707180f497290E.exit.i.i: ; preds = %bb6.i.i.i2
  %_9.i.i.i.i.i3 = icmp ugt i64 %iter.sroa.7.0.i.i.i, 10
  br i1 %_9.i.i.i.i.i3, label %bb3.i.i.i.i.i, label %"_ZN89_$LT$soroban_env_common..symbol..SymbolStr$u20$as$u20$core..convert..AsRef$LT$str$GT$$GT$6as_ref17h672d462a0041b138E.exit"

bb3.i.i.i.i.i:                                    ; preds = %_ZN18soroban_env_common6symbol9SymbolStr3len17h5b4707180f497290E.exit.i.i
  call void @llvm.trap() #23, !noalias !627
  unreachable

"_ZN89_$LT$soroban_env_common..symbol..SymbolStr$u20$as$u20$core..convert..AsRef$LT$str$GT$$GT$6as_ref17h672d462a0041b138E.exit": ; preds = %_ZN18soroban_env_common6symbol9SymbolStr3len17h5b4707180f497290E.exit.i.i, %bb4.i.i.i
  %.0.i.i.i34 = phi i64 [ %iter.sroa.7.0.i.i.i, %_ZN18soroban_env_common6symbol9SymbolStr3len17h5b4707180f497290E.exit.i.i ], [ 10, %bb4.i.i.i ]
  %s.0.i.i = bitcast %"soroban_env_common::symbol::SymbolStr"* %_8.i to [0 x i8]*
  %17 = call fastcc noundef zeroext i1 @"_ZN4core5slice3cmp81_$LT$impl$u20$core..cmp..PartialEq$LT$$u5b$B$u5d$$GT$$u20$for$u20$$u5b$A$u5d$$GT$2eq17h9c065fd5cbcd098aE"([0 x i8]* noalias noundef nonnull readonly align 1 %s.0.i.i, i64 %.0.i.i.i34, [0 x i8]* noalias noundef nonnull readonly align 1 bitcast (<{ [9 x i8] }>* @alloc220 to [0 x i8]*), i64 9) #23, !noalias !634
  br i1 %17, label %bb5.i, label %bb9.i

bb5.i:                                            ; preds = %"_ZN89_$LT$soroban_env_common..symbol..SymbolStr$u20$as$u20$core..convert..AsRef$LT$str$GT$$GT$6as_ref17h672d462a0041b138E.exit"
  %18 = bitcast i64** %env.i.i.i to i8*
  call void @llvm.lifetime.start.p0i8(i64 8, i8* nonnull %18) #23, !noalias !613
  store i64* %1, i64** %env.i.i.i, align 8, !noalias !613
  %19 = load i64, i64* %1, align 8, !noalias !638
  %_4.i.i.i5 = icmp ne i64 %19, 0
  call void @llvm.assume(i1 %_4.i.i.i5) #23
  %20 = add i64 %19, 1
  store i64 %20, i64* %1, align 8, !alias.scope !643, !noalias !638
  %_14.i.i.i6 = icmp eq i64 %20, 0
  br i1 %_14.i.i.i6, label %bb6.i.i.i7, label %"_ZN75_$LT$soroban_env_verification..host..Host$u20$as$u20$core..clone..Clone$GT$5clone17hb79718edf21da39aE.exit8"

bb6.i.i.i7:                                       ; preds = %bb5.i
  call void @llvm.trap() #23, !noalias !638
  unreachable

"_ZN75_$LT$soroban_env_verification..host..Host$u20$as$u20$core..clone..Clone$GT$5clone17hb79718edf21da39aE.exit8": ; preds = %bb5.i
  %21 = bitcast i64** %env.i.i.i.i to i8*
  call void @llvm.lifetime.start.p0i8(i64 8, i8* nonnull %21) #23, !noalias !613
  store i64* %1, i64** %env.i.i.i.i, align 8, !noalias !613
  %22 = bitcast i64** %_5.i.i.i.i to i8*
  call void @llvm.lifetime.start.p0i8(i64 8, i8* nonnull %22) #23, !noalias !613
  %23 = add i64 %19, 2
  store i64 %23, i64* %1, align 8, !alias.scope !646, !noalias !649
  %_14.i.i.i11 = icmp eq i64 %23, 0
  br i1 %_14.i.i.i11, label %bb6.i.i.i12, label %"_ZN75_$LT$soroban_env_verification..host..Host$u20$as$u20$core..clone..Clone$GT$5clone17hb79718edf21da39aE.exit13"

bb6.i.i.i12:                                      ; preds = %"_ZN75_$LT$soroban_env_verification..host..Host$u20$as$u20$core..clone..Clone$GT$5clone17hb79718edf21da39aE.exit8"
  call void @llvm.trap() #23, !noalias !649
  unreachable

"_ZN75_$LT$soroban_env_verification..host..Host$u20$as$u20$core..clone..Clone$GT$5clone17hb79718edf21da39aE.exit13": ; preds = %"_ZN75_$LT$soroban_env_verification..host..Host$u20$as$u20$core..clone..Clone$GT$5clone17hb79718edf21da39aE.exit8"
  store i64* %1, i64** %_5.i.i.i.i, align 8, !noalias !613
  %24 = getelementptr inbounds %"core::result::Result<stellar_xdr::next::generated::ScVal, raw_val::ConversionError>", %"core::result::Result<stellar_xdr::next::generated::ScVal, raw_val::ConversionError>"* %key.i.i, i64 0, i32 0
  call void @llvm.lifetime.start.p0i8(i64 40, i8* nonnull %24) #23, !noalias !654
  %25 = getelementptr inbounds %"core::result::Result<stellar_xdr::next::generated::ScVal, raw_val::ConversionError>", %"core::result::Result<stellar_xdr::next::generated::ScVal, raw_val::ConversionError>"* %_4.i.i14, i64 0, i32 0
  call void @llvm.lifetime.start.p0i8(i64 40, i8* nonnull %25) #23, !noalias !654
  call fastcc void @"_ZN142_$LT$stellar_xdr..next..generated..ScVal$u20$as$u20$soroban_env_common..env_val..TryFromVal$LT$E$C$soroban_env_common..raw_val..RawVal$GT$$GT$12try_from_val17h3128a368050a0ff1E"(%"core::result::Result<stellar_xdr::next::generated::ScVal, raw_val::ConversionError>"* noalias nocapture noundef nonnull dereferenceable(40) %_4.i.i14, i64 15848536228313) #23
  call void @llvm.experimental.noalias.scope.decl(metadata !659) #23
  call void @llvm.experimental.noalias.scope.decl(metadata !662) #23
  %26 = load i8, i8* %25, align 8, !range !664, !alias.scope !662, !noalias !665, !noundef !123
  %27 = icmp eq i8 %26, 19
  br i1 %27, label %bb1.i.i.i, label %"_ZN4core6result19Result$LT$T$C$E$GT$14unwrap_or_else17h462321b47b66823eE.exit.i.i"

bb1.i.i.i:                                        ; preds = %"_ZN75_$LT$soroban_env_verification..host..Host$u20$as$u20$core..clone..Clone$GT$5clone17hb79718edf21da39aE.exit13"
  call void @llvm.trap() #23, !noalias !666
  unreachable

"_ZN4core6result19Result$LT$T$C$E$GT$14unwrap_or_else17h462321b47b66823eE.exit.i.i": ; preds = %"_ZN75_$LT$soroban_env_verification..host..Host$u20$as$u20$core..clone..Clone$GT$5clone17hb79718edf21da39aE.exit13"
  call void @llvm.memcpy.p0i8.p0i8.i64(i8* noundef nonnull align 8 dereferenceable(40) %24, i8* noundef nonnull align 8 dereferenceable(40) %25, i64 40, i1 false) #23, !alias.scope !667, !noalias !654
  call void @llvm.lifetime.end.p0i8(i64 40, i8* nonnull %25) #23, !noalias !654
  %28 = getelementptr inbounds %"alloc::rc::RcBox<soroban_env_verification::host::HostImpl>", %"alloc::rc::RcBox<soroban_env_verification::host::HostImpl>"* %_31.i.i.i.i, i64 0, i32 2, i32 2, i32 0
  %29 = load i64, i64* %28, align 8, !noalias !654
  %30 = icmp ult i64 %29, 9223372036854775807
  br i1 %30, label %"_ZN4core4cell16RefCell$LT$T$GT$6borrow17hc5c48f157d7f06dbE.exit.i.i", label %bb1.i.i.i.i

bb1.i.i.i.i:                                      ; preds = %"_ZN4core6result19Result$LT$T$C$E$GT$14unwrap_or_else17h462321b47b66823eE.exit.i.i"
  call void @llvm.trap() #23, !noalias !654
  unreachable

"_ZN4core4cell16RefCell$LT$T$GT$6borrow17hc5c48f157d7f06dbE.exit.i.i": ; preds = %"_ZN4core6result19Result$LT$T$C$E$GT$14unwrap_or_else17h462321b47b66823eE.exit.i.i"
  %31 = add nuw nsw i64 %29, 1
  store i64 %31, i64* %28, align 8, !alias.scope !668, !noalias !654
  %32 = getelementptr inbounds %"alloc::rc::RcBox<soroban_env_verification::host::HostImpl>", %"alloc::rc::RcBox<soroban_env_verification::host::HostImpl>"* %_31.i.i.i.i, i64 0, i32 2, i32 2, i32 1, i32 0, i32 0, i32 0, i32 0, i32 0
  call void @llvm.experimental.noalias.scope.decl(metadata !671) #23
  call void @llvm.experimental.noalias.scope.decl(metadata !674) #23
  %33 = getelementptr inbounds i64, i64* %32, i64 2
  %34 = load i64, i64* %33, align 8, !alias.scope !677, !noalias !682
  %35 = icmp eq i64 %34, 0
  br i1 %35, label %bb7.thread.i.critedge51, label %bb3.i1.i.i.i

bb3.i1.i.i.i:                                     ; preds = %"_ZN4core4cell16RefCell$LT$T$GT$6borrow17hc5c48f157d7f06dbE.exit.i.i"
  %36 = getelementptr inbounds i64, i64* %32, i64 1
  %37 = bitcast i64* %36 to [0 x { i64*, i64* }]**
  %_21.i.i1.i.i.i.i.i = load [0 x { i64*, i64* }]*, [0 x { i64*, i64* }]** %37, align 8, !alias.scope !685, !noalias !682, !nonnull !123
  %38 = getelementptr inbounds [0 x { i64*, i64* }], [0 x { i64*, i64* }]* %_21.i.i1.i.i.i.i.i, i64 0, i64 %34
  %39 = getelementptr [0 x { i64*, i64* }], [0 x { i64*, i64* }]* %_21.i.i1.i.i.i.i.i, i64 0, i64 0
  br label %bb15.i.i.i.i.i

bb15.i.i.i.i.i:                                   ; preds = %bb20.i.i.i.i.i, %bb3.i1.i.i.i
  %_52.i.i.i.i.i.i = phi { i64*, i64* }* [ %39, %bb3.i1.i.i.i ], [ %43, %bb20.i.i.i.i.i ]
  %i.0.i.i.i.i.i = phi i64 [ 0, %bb3.i1.i.i.i ], [ %_36.0.i.i.i.i.i, %bb20.i.i.i.i.i ]
  %_10.i.i.i.i.i.i = icmp eq { i64*, i64* }* %_52.i.i.i.i.i.i, %38
  br i1 %_10.i.i.i.i.i.i, label %bb7.thread.i.critedge, label %bb17.i.i.i.i.i

bb17.i.i.i.i.i:                                   ; preds = %bb15.i.i.i.i.i
  call void @llvm.experimental.noalias.scope.decl(metadata !692) #23
  %_5.i.i.i.i.i.i = getelementptr inbounds { i64*, i64* }, { i64*, i64* }* %_52.i.i.i.i.i.i, i64 0, i32 1
  %40 = bitcast i64** %_5.i.i.i.i.i.i to %"alloc::rc::RcBox<stellar_xdr::next::generated::ScVal>"**
  %_31.i.i.i.i.i.i.i.i.i.i = load %"alloc::rc::RcBox<stellar_xdr::next::generated::ScVal>"*, %"alloc::rc::RcBox<stellar_xdr::next::generated::ScVal>"** %40, align 8, !alias.scope !695, !noalias !704, !nonnull !123
  %41 = getelementptr inbounds %"alloc::rc::RcBox<stellar_xdr::next::generated::ScVal>", %"alloc::rc::RcBox<stellar_xdr::next::generated::ScVal>"* %_31.i.i.i.i.i.i.i.i.i.i, i64 0, i32 2
  %42 = call fastcc noundef zeroext i1 @"_ZN76_$LT$stellar_xdr..next..generated..ScVal$u20$as$u20$core..cmp..PartialEq$GT$2eq17hcf33e2e82326904bE"(%"core::result::Result<stellar_xdr::next::generated::ScVal, raw_val::ConversionError>"* noalias noundef nonnull readonly align 8 dereferenceable(40) %41, %"core::result::Result<stellar_xdr::next::generated::ScVal, raw_val::ConversionError>"* noalias noundef nonnull readonly align 8 dereferenceable(40) %key.i.i) #23, !noalias !709
  br i1 %42, label %bb3.i.i.i.i, label %bb20.i.i.i.i.i

bb20.i.i.i.i.i:                                   ; preds = %bb17.i.i.i.i.i
  %43 = getelementptr inbounds { i64*, i64* }, { i64*, i64* }* %_52.i.i.i.i.i.i, i64 1
  %_36.0.i.i.i.i.i = add nuw nsw i64 %i.0.i.i.i.i.i, 1
  br label %bb15.i.i.i.i.i

bb3.i.i.i.i:                                      ; preds = %bb17.i.i.i.i.i
  %_32.i.i.i.i.i = icmp ult i64 %i.0.i.i.i.i.i, %34
  call void @llvm.assume(i1 %_32.i.i.i.i.i) #23
  %44 = getelementptr inbounds [0 x { i64*, i64* }], [0 x { i64*, i64* }]* %_21.i.i1.i.i.i.i.i, i64 0, i64 %i.0.i.i.i.i.i
  %45 = bitcast { i64*, i64* }* %44 to {}**
  %46 = load {}*, {}** %45, align 8, !noalias !713
  %.not.i.i.not = icmp eq {}* %46, null
  %storemerge.in = load i64, i64* %28, align 8, !noalias !654
  %storemerge = add i64 %storemerge.in, -1
  store i64 %storemerge, i64* %28, align 8, !alias.scope !716, !noalias !654
  call fastcc void @"_ZN4core3ptr56drop_in_place$LT$stellar_xdr..next..generated..ScVal$GT$17h044a29ff334c2310E"(%"core::result::Result<stellar_xdr::next::generated::ScVal, raw_val::ConversionError>"* nonnull %key.i.i) #23, !noalias !654
  call void @llvm.lifetime.end.p0i8(i64 40, i8* nonnull %24) #23, !noalias !654
  br i1 %.not.i.i.not, label %bb7.thread.i, label %_ZN11soroban_sdk7storage7Storage3get17hab5367d7007920daE.exit.i.i.i.i

_ZN11soroban_sdk7storage7Storage3get17hab5367d7007920daE.exit.i.i.i.i: ; preds = %bb3.i.i.i.i
  call void @llvm.trap() #23
  unreachable

bb7.thread.i.critedge:                            ; preds = %bb15.i.i.i.i.i
  %storemerge.in.c = load i64, i64* %28, align 8, !noalias !654
  %storemerge.c = add i64 %storemerge.in.c, -1
  store i64 %storemerge.c, i64* %28, align 8, !alias.scope !716, !noalias !654
  call fastcc void @"_ZN4core3ptr56drop_in_place$LT$stellar_xdr..next..generated..ScVal$GT$17h044a29ff334c2310E"(%"core::result::Result<stellar_xdr::next::generated::ScVal, raw_val::ConversionError>"* nonnull %key.i.i) #23, !noalias !654
  call void @llvm.lifetime.end.p0i8(i64 40, i8* nonnull %24) #23, !noalias !654
  br label %bb7.thread.i

bb7.thread.i.critedge51:                          ; preds = %"_ZN4core4cell16RefCell$LT$T$GT$6borrow17hc5c48f157d7f06dbE.exit.i.i"
  %storemerge.in.c52 = load i64, i64* %28, align 8, !noalias !654
  %storemerge.c53 = add i64 %storemerge.in.c52, -1
  store i64 %storemerge.c53, i64* %28, align 8, !alias.scope !716, !noalias !654
  call fastcc void @"_ZN4core3ptr56drop_in_place$LT$stellar_xdr..next..generated..ScVal$GT$17h044a29ff334c2310E"(%"core::result::Result<stellar_xdr::next::generated::ScVal, raw_val::ConversionError>"* nonnull %key.i.i) #23, !noalias !654
  call void @llvm.lifetime.end.p0i8(i64 40, i8* nonnull %24) #23, !noalias !654
  br label %bb7.thread.i

bb7.thread.i:                                     ; preds = %bb7.thread.i.critedge51, %bb7.thread.i.critedge, %bb3.i.i.i.i
  call fastcc void @"_ZN64_$LT$alloc..rc..Rc$LT$T$GT$$u20$as$u20$core..ops..drop..Drop$GT$4drop17h830fc5bba9825715E"(i64** noalias noundef nonnull align 8 dereferenceable(8) %_5.i.i.i.i) #23
  call void @llvm.lifetime.end.p0i8(i64 8, i8* nonnull %22) #23, !noalias !613
  %47 = bitcast i64** %_12.i.i.i.i to i8*
  call void @llvm.lifetime.start.p0i8(i64 8, i8* nonnull %47) #23, !noalias !613
  %48 = getelementptr %"alloc::rc::RcBox<soroban_env_verification::host::HostImpl>", %"alloc::rc::RcBox<soroban_env_verification::host::HostImpl>"* %_31.i.i.i.i, i64 0, i32 0
  %49 = load i64, i64* %48, align 8, !noalias !719
  %_4.i.i.i17 = icmp ne i64 %49, 0
  call void @llvm.assume(i1 %_4.i.i.i17) #23
  %50 = add i64 %49, 1
  store i64 %50, i64* %48, align 8, !alias.scope !724, !noalias !719
  %_14.i.i.i18 = icmp eq i64 %50, 0
  br i1 %_14.i.i.i18, label %bb6.i.i.i19, label %"_ZN75_$LT$soroban_env_verification..host..Host$u20$as$u20$core..clone..Clone$GT$5clone17hb79718edf21da39aE.exit20"

bb6.i.i.i19:                                      ; preds = %bb7.thread.i
  call void @llvm.trap() #23, !noalias !719
  unreachable

"_ZN75_$LT$soroban_env_verification..host..Host$u20$as$u20$core..clone..Clone$GT$5clone17hb79718edf21da39aE.exit20": ; preds = %bb7.thread.i
  store i64* %48, i64** %_12.i.i.i.i, align 8, !noalias !613
  %51 = getelementptr inbounds %"core::result::Result<stellar_xdr::next::generated::ScVal, raw_val::ConversionError>", %"core::result::Result<stellar_xdr::next::generated::ScVal, raw_val::ConversionError>"* %_6.i.i, i64 0, i32 0
  call void @llvm.lifetime.start.p0i8(i64 40, i8* nonnull %51) #23, !noalias !727
  %52 = getelementptr inbounds %"core::result::Result<stellar_xdr::next::generated::ScVal, raw_val::ConversionError>", %"core::result::Result<stellar_xdr::next::generated::ScVal, raw_val::ConversionError>"* %_7.i.i, i64 0, i32 0
  call void @llvm.lifetime.start.p0i8(i64 40, i8* nonnull %52) #23, !noalias !727
  call fastcc void @"_ZN142_$LT$stellar_xdr..next..generated..ScVal$u20$as$u20$soroban_env_common..env_val..TryFromVal$LT$E$C$soroban_env_common..raw_val..RawVal$GT$$GT$12try_from_val17h3128a368050a0ff1E"(%"core::result::Result<stellar_xdr::next::generated::ScVal, raw_val::ConversionError>"* noalias nocapture noundef nonnull dereferenceable(40) %_7.i.i, i64 15848536228313) #23
  call void @llvm.experimental.noalias.scope.decl(metadata !732) #23
  call void @llvm.experimental.noalias.scope.decl(metadata !735) #23
  %53 = load i8, i8* %52, align 8, !range !664, !alias.scope !735, !noalias !737, !noundef !123
  %54 = icmp eq i8 %53, 19
  br i1 %54, label %bb1.i.i.i24, label %"_ZN4core6result19Result$LT$T$C$E$GT$14unwrap_or_else17h1bd9fd4b96759728E.exit.i.i"

bb1.i.i.i24:                                      ; preds = %"_ZN75_$LT$soroban_env_verification..host..Host$u20$as$u20$core..clone..Clone$GT$5clone17hb79718edf21da39aE.exit20"
  call void @llvm.trap() #23, !noalias !738
  unreachable

"_ZN4core6result19Result$LT$T$C$E$GT$14unwrap_or_else17h1bd9fd4b96759728E.exit.i.i": ; preds = %"_ZN75_$LT$soroban_env_verification..host..Host$u20$as$u20$core..clone..Clone$GT$5clone17hb79718edf21da39aE.exit20"
  call void @llvm.memcpy.p0i8.p0i8.i64(i8* noundef nonnull align 8 dereferenceable(40) %51, i8* noundef nonnull align 8 dereferenceable(40) %52, i64 40, i1 false) #23, !alias.scope !739, !noalias !727
  call void @llvm.lifetime.end.p0i8(i64 40, i8* nonnull %52) #23, !noalias !727
  %55 = getelementptr inbounds %"core::result::Result<stellar_xdr::next::generated::ScVal, raw_val::ConversionError>", %"core::result::Result<stellar_xdr::next::generated::ScVal, raw_val::ConversionError>"* %_14.i.i, i64 0, i32 0
  call void @llvm.lifetime.start.p0i8(i64 40, i8* nonnull %55) #23, !noalias !727
  %56 = getelementptr inbounds %"core::result::Result<stellar_xdr::next::generated::ScVal, raw_val::ConversionError>", %"core::result::Result<stellar_xdr::next::generated::ScVal, raw_val::ConversionError>"* %_15.i.i, i64 0, i32 0
  call void @llvm.lifetime.start.p0i8(i64 40, i8* nonnull %56) #23, !noalias !727
  call fastcc void @"_ZN142_$LT$stellar_xdr..next..generated..ScVal$u20$as$u20$soroban_env_common..env_val..TryFromVal$LT$E$C$soroban_env_common..raw_val..RawVal$GT$$GT$12try_from_val17h3128a368050a0ff1E"(%"core::result::Result<stellar_xdr::next::generated::ScVal, raw_val::ConversionError>"* noalias nocapture noundef nonnull dereferenceable(40) %_15.i.i, i64 17) #23
  call void @llvm.experimental.noalias.scope.decl(metadata !740) #23
  call void @llvm.experimental.noalias.scope.decl(metadata !743) #23
  %57 = load i8, i8* %56, align 8, !range !664, !alias.scope !743, !noalias !745, !noundef !123
  %58 = icmp eq i8 %57, 19
  br i1 %58, label %bb1.i1.i.i, label %"_ZN4core6result19Result$LT$T$C$E$GT$14unwrap_or_else17h71046385b2b157e0E.exit.i.i"

bb1.i1.i.i:                                       ; preds = %"_ZN4core6result19Result$LT$T$C$E$GT$14unwrap_or_else17h1bd9fd4b96759728E.exit.i.i"
  call void @llvm.trap() #23, !noalias !746
  unreachable

"_ZN4core6result19Result$LT$T$C$E$GT$14unwrap_or_else17h71046385b2b157e0E.exit.i.i": ; preds = %"_ZN4core6result19Result$LT$T$C$E$GT$14unwrap_or_else17h1bd9fd4b96759728E.exit.i.i"
  call void @llvm.memcpy.p0i8.p0i8.i64(i8* noundef nonnull align 8 dereferenceable(40) %55, i8* noundef nonnull align 8 dereferenceable(40) %56, i64 40, i1 false) #23, !alias.scope !747, !noalias !727
  call void @llvm.lifetime.end.p0i8(i64 40, i8* nonnull %56) #23, !noalias !727
  %59 = getelementptr inbounds %"alloc::rc::RcBox<soroban_env_verification::host::HostImpl>", %"alloc::rc::RcBox<soroban_env_verification::host::HostImpl>"* %_31.i.i.i.i, i64 0, i32 2, i32 2, i32 0
  %60 = load i64, i64* %59, align 8, !noalias !727
  %61 = icmp eq i64 %60, 0
  br i1 %61, label %"_ZN4core4cell16RefCell$LT$T$GT$10borrow_mut17hed53dd05d15c0c2aE.exit.i.i", label %bb1.i.i.i.i27

bb1.i.i.i.i27:                                    ; preds = %"_ZN4core6result19Result$LT$T$C$E$GT$14unwrap_or_else17h71046385b2b157e0E.exit.i.i"
  call void @llvm.trap() #23, !noalias !727
  unreachable

"_ZN4core4cell16RefCell$LT$T$GT$10borrow_mut17hed53dd05d15c0c2aE.exit.i.i": ; preds = %"_ZN4core6result19Result$LT$T$C$E$GT$14unwrap_or_else17h71046385b2b157e0E.exit.i.i"
  store i64 -1, i64* %59, align 8, !alias.scope !748, !noalias !727
  %62 = getelementptr inbounds %"alloc::rc::RcBox<soroban_env_verification::host::HostImpl>", %"alloc::rc::RcBox<soroban_env_verification::host::HostImpl>"* %_31.i.i.i.i, i64 0, i32 2, i32 2, i32 1, i32 0, i32 0, i32 0, i32 0, i32 0
  %_6.sroa.4.0.sroa_idx4.i.i.i = getelementptr inbounds [39 x i8], [39 x i8]* %_6.sroa.4.i.i.i, i64 0, i64 0
  call void @llvm.lifetime.start.p0i8(i64 39, i8* nonnull %_6.sroa.4.0.sroa_idx4.i.i.i)
  %63 = getelementptr inbounds %"core::result::Result<stellar_xdr::next::generated::ScVal, raw_val::ConversionError>", %"core::result::Result<stellar_xdr::next::generated::ScVal, raw_val::ConversionError>"* %_7.i.i.i, i64 0, i32 0
  call void @llvm.lifetime.start.p0i8(i64 40, i8* nonnull %63) #23, !noalias !751
  call fastcc void @"_ZN74_$LT$stellar_xdr..next..generated..ScVal$u20$as$u20$core..clone..Clone$GT$5clone17he405b7f8dc390159E"(%"core::result::Result<stellar_xdr::next::generated::ScVal, raw_val::ConversionError>"* noalias nocapture noundef nonnull dereferenceable(40) %_7.i.i.i, %"core::result::Result<stellar_xdr::next::generated::ScVal, raw_val::ConversionError>"* noalias noundef nonnull readonly align 8 dereferenceable(40) %_14.i.i) #23, !noalias !756
  %_6.sroa.0.0.copyload.i.i.i = load i8, i8* %63, align 8, !noalias !751
  %_6.sroa.4.0..sroa_idx.i.i.i = getelementptr inbounds %"core::result::Result<stellar_xdr::next::generated::ScVal, raw_val::ConversionError>", %"core::result::Result<stellar_xdr::next::generated::ScVal, raw_val::ConversionError>"* %_7.i.i.i, i64 0, i32 1, i64 0
  call void @llvm.memcpy.p0i8.p0i8.i64(i8* noundef nonnull align 1 dereferenceable(39) %_6.sroa.4.0.sroa_idx4.i.i.i, i8* noundef nonnull align 1 dereferenceable(39) %_6.sroa.4.0..sroa_idx.i.i.i, i64 39, i1 false) #23, !noalias !751
  call void @llvm.lifetime.end.p0i8(i64 40, i8* nonnull %63) #23, !noalias !751
  %64 = bitcast { i64, i8* }* %_4.i.i2.i.i to i8*
  call void @llvm.lifetime.start.p0i8(i64 16, i8* nonnull %64) #23, !noalias !757
  %65 = getelementptr inbounds %"core::result::Result<stellar_xdr::next::generated::ScVal, raw_val::ConversionError>", %"core::result::Result<stellar_xdr::next::generated::ScVal, raw_val::ConversionError>"* %_7.i.i.i.i, i64 0, i32 0
  call void @llvm.lifetime.start.p0i8(i64 40, i8* nonnull %65) #23, !noalias !757
  call fastcc void @"_ZN74_$LT$stellar_xdr..next..generated..ScVal$u20$as$u20$core..clone..Clone$GT$5clone17he405b7f8dc390159E"(%"core::result::Result<stellar_xdr::next::generated::ScVal, raw_val::ConversionError>"* noalias nocapture noundef nonnull dereferenceable(40) %_7.i.i.i.i, %"core::result::Result<stellar_xdr::next::generated::ScVal, raw_val::ConversionError>"* noalias noundef nonnull readonly align 8 dereferenceable(40) %_6.i.i) #23, !noalias !762
  %_6.i.i.i.i = call fastcc noundef nonnull i64* @"_ZN5alloc2rc11Rc$LT$T$GT$3new17hac709810e898323dE"(%"core::result::Result<stellar_xdr::next::generated::ScVal, raw_val::ConversionError>"* noalias nocapture noundef nonnull dereferenceable(40) %_7.i.i.i.i) #23, !noalias !762
  call void @llvm.lifetime.end.p0i8(i64 40, i8* nonnull %65) #23, !noalias !757
  %66 = icmp eq i8 %_6.sroa.0.0.copyload.i.i.i, 19
  br i1 %66, label %"_ZN4core6option15Option$LT$T$GT$3map17h2f745461a97d891aE.exit.i.i.i.i", label %bb3.i.i.i.i.i29

bb3.i.i.i.i.i29:                                  ; preds = %"_ZN4core4cell16RefCell$LT$T$GT$10borrow_mut17hed53dd05d15c0c2aE.exit.i.i"
  %67 = getelementptr inbounds %"core::result::Result<stellar_xdr::next::generated::ScVal, raw_val::ConversionError>", %"core::result::Result<stellar_xdr::next::generated::ScVal, raw_val::ConversionError>"* %_3.i.i.i.i.i.i22, i64 0, i32 0
  call void @llvm.lifetime.start.p0i8(i64 40, i8* nonnull %67) #23, !noalias !763
  store i8 %_6.sroa.0.0.copyload.i.i.i, i8* %67, align 8, !noalias !757
  %_6.sroa.4.1._10.sroa.5.0..sroa_idx5.i.sroa_idx.i.i.i = getelementptr inbounds %"core::result::Result<stellar_xdr::next::generated::ScVal, raw_val::ConversionError>", %"core::result::Result<stellar_xdr::next::generated::ScVal, raw_val::ConversionError>"* %_3.i.i.i.i.i.i22, i64 0, i32 1, i64 0
  call void @llvm.memcpy.p0i8.p0i8.i64(i8* noundef nonnull align 1 dereferenceable(39) %_6.sroa.4.1._10.sroa.5.0..sroa_idx5.i.sroa_idx.i.i.i, i8* noundef nonnull align 1 dereferenceable(39) %_6.sroa.4.0.sroa_idx4.i.i.i, i64 39, i1 false) #23, !noalias !768
  %68 = call fastcc noundef nonnull i64* @"_ZN5alloc2rc11Rc$LT$T$GT$3new17hac709810e898323dE"(%"core::result::Result<stellar_xdr::next::generated::ScVal, raw_val::ConversionError>"* noalias nocapture noundef nonnull dereferenceable(40) %_3.i.i.i.i.i.i22) #23, !noalias !769
  call void @llvm.lifetime.end.p0i8(i64 40, i8* nonnull %67) #23, !noalias !763
  br label %"_ZN4core6option15Option$LT$T$GT$3map17h2f745461a97d891aE.exit.i.i.i.i"

"_ZN4core6option15Option$LT$T$GT$3map17h2f745461a97d891aE.exit.i.i.i.i": ; preds = %bb3.i.i.i.i.i29, %"_ZN4core4cell16RefCell$LT$T$GT$10borrow_mut17hed53dd05d15c0c2aE.exit.i.i"
  %.0.i.i.i.i.i = phi i64* [ %68, %bb3.i.i.i.i.i29 ], [ null, %"_ZN4core4cell16RefCell$LT$T$GT$10borrow_mut17hed53dd05d15c0c2aE.exit.i.i" ]
  call void @llvm.experimental.noalias.scope.decl(metadata !770) #23
  call void @llvm.experimental.noalias.scope.decl(metadata !773) #23, !noalias !776
  call void @llvm.experimental.noalias.scope.decl(metadata !777) #23, !noalias !776
  %69 = getelementptr inbounds i64, i64* %62, i64 2
  %70 = load i64, i64* %69, align 8, !alias.scope !780, !noalias !785
  %71 = icmp eq i64 %70, 0
  br i1 %71, label %bb2.i.i.i.i, label %bb3.i.i.i1.i.i

bb3.i.i.i1.i.i:                                   ; preds = %"_ZN4core6option15Option$LT$T$GT$3map17h2f745461a97d891aE.exit.i.i.i.i"
  %72 = getelementptr inbounds i64, i64* %62, i64 1
  %73 = bitcast i64* %72 to [0 x { i64*, i64* }]**
  %_21.i.i1.i.i1.i.i.i.i = load [0 x { i64*, i64* }]*, [0 x { i64*, i64* }]** %73, align 8, !alias.scope !788, !noalias !785, !nonnull !123
  %74 = getelementptr inbounds [0 x { i64*, i64* }], [0 x { i64*, i64* }]* %_21.i.i1.i.i1.i.i.i.i, i64 0, i64 %70
  %75 = getelementptr [0 x { i64*, i64* }], [0 x { i64*, i64* }]* %_21.i.i1.i.i1.i.i.i.i, i64 0, i64 0
  %76 = bitcast i64* %_6.i.i.i.i to %"alloc::rc::RcBox<stellar_xdr::next::generated::ScVal>"*
  %77 = getelementptr inbounds i64, i64* %_6.i.i.i.i, i64 2
  %78 = bitcast i64* %77 to %"core::result::Result<stellar_xdr::next::generated::ScVal, raw_val::ConversionError>"*
  br label %bb15.i.i.i.i.i.i

bb15.i.i.i.i.i.i:                                 ; preds = %bb20.i.i.i.i.i.i, %bb3.i.i.i1.i.i
  %_52.i.i.i.i.i.i.i = phi { i64*, i64* }* [ %75, %bb3.i.i.i1.i.i ], [ %79, %bb20.i.i.i.i.i.i ]
  %i.0.i.i.i.i.i.i = phi i64 [ 0, %bb3.i.i.i1.i.i ], [ %_36.0.i.i.i.i.i.i, %bb20.i.i.i.i.i.i ]
  %_10.i.i.i.i.i.i.i = icmp eq { i64*, i64* }* %_52.i.i.i.i.i.i.i, %74
  br i1 %_10.i.i.i.i.i.i.i, label %bb2.i.i.i.i, label %bb17.i.i.i.i.i.i

bb17.i.i.i.i.i.i:                                 ; preds = %bb15.i.i.i.i.i.i
  %79 = getelementptr inbounds { i64*, i64* }, { i64*, i64* }* %_52.i.i.i.i.i.i.i, i64 1
  call void @llvm.experimental.noalias.scope.decl(metadata !795) #23, !noalias !776
  %_5.i.i.i.i.i.i.i = getelementptr inbounds { i64*, i64* }, { i64*, i64* }* %_52.i.i.i.i.i.i.i, i64 0, i32 1
  %80 = bitcast i64** %_5.i.i.i.i.i.i.i to %"alloc::rc::RcBox<stellar_xdr::next::generated::ScVal>"**
  call void @llvm.experimental.noalias.scope.decl(metadata !798) #23, !noalias !776
  call void @llvm.experimental.noalias.scope.decl(metadata !801) #23, !noalias !776
  %_42.i.i.i.i.i.i.i.i.i.i.i = load %"alloc::rc::RcBox<stellar_xdr::next::generated::ScVal>"*, %"alloc::rc::RcBox<stellar_xdr::next::generated::ScVal>"** %80, align 8, !alias.scope !804, !noalias !807, !nonnull !123
  %81 = icmp eq %"alloc::rc::RcBox<stellar_xdr::next::generated::ScVal>"* %_42.i.i.i.i.i.i.i.i.i.i.i, %76
  br i1 %81, label %bb2.i.i.i.i.i, label %"_ZN6vecmap3map19VecMap$LT$K$C$V$GT$12get_index_of28_$u7b$$u7b$closure$u7d$$u7d$17hc8c7989919caf1dbE.exit.i.i.i.i.i.i"

"_ZN6vecmap3map19VecMap$LT$K$C$V$GT$12get_index_of28_$u7b$$u7b$closure$u7d$$u7d$17hc8c7989919caf1dbE.exit.i.i.i.i.i.i": ; preds = %bb17.i.i.i.i.i.i
  %82 = getelementptr inbounds %"alloc::rc::RcBox<stellar_xdr::next::generated::ScVal>", %"alloc::rc::RcBox<stellar_xdr::next::generated::ScVal>"* %_42.i.i.i.i.i.i.i.i.i.i.i, i64 0, i32 2
  %_6.i.i.i.i.i.i.i.i.i.i = call fastcc noundef zeroext i1 @"_ZN76_$LT$stellar_xdr..next..generated..ScVal$u20$as$u20$core..cmp..PartialEq$GT$2eq17hcf33e2e82326904bE"(%"core::result::Result<stellar_xdr::next::generated::ScVal, raw_val::ConversionError>"* noalias noundef nonnull readonly align 8 dereferenceable(40) %82, %"core::result::Result<stellar_xdr::next::generated::ScVal, raw_val::ConversionError>"* noalias noundef nonnull readonly align 8 dereferenceable(40) %78) #23, !noalias !818
  br i1 %_6.i.i.i.i.i.i.i.i.i.i, label %bb2.i.i.i.i.i, label %bb20.i.i.i.i.i.i

bb20.i.i.i.i.i.i:                                 ; preds = %"_ZN6vecmap3map19VecMap$LT$K$C$V$GT$12get_index_of28_$u7b$$u7b$closure$u7d$$u7d$17hc8c7989919caf1dbE.exit.i.i.i.i.i.i"
  %_36.0.i.i.i.i.i.i = add nuw nsw i64 %i.0.i.i.i.i.i.i, 1
  br label %bb15.i.i.i.i.i.i

bb2.i.i.i.i:                                      ; preds = %bb15.i.i.i.i.i.i, %"_ZN4core6option15Option$LT$T$GT$3map17h2f745461a97d891aE.exit.i.i.i.i"
  call void @llvm.experimental.noalias.scope.decl(metadata !819) #23, !noalias !776
  %83 = load i64, i64* %62, align 8, !alias.scope !822, !noalias !827
  %_3.i.i.i.i2.i.i = icmp eq i64 %70, %83
  br i1 %_3.i.i.i.i2.i.i, label %bb2.i.i.i.i.i.i, label %"bb2.i.i.i.i._ZN6vecmap3map19VecMap$LT$K$C$V$GT$4push17h2b2b40ad49a0bfdfE.exit.i.i.i.i_crit_edge"

"bb2.i.i.i.i._ZN6vecmap3map19VecMap$LT$K$C$V$GT$4push17h2b2b40ad49a0bfdfE.exit.i.i.i.i_crit_edge": ; preds = %bb2.i.i.i.i
  %.pre = load i64, i64* %69, align 8, !alias.scope !828, !noalias !827
  br label %"_ZN6vecmap3map19VecMap$LT$K$C$V$GT$6insert17h5b2c0df4fde2c407E.exit.i.i.thread"

bb2.i.i.i.i.i.i:                                  ; preds = %bb2.i.i.i.i
  %_6.i.i.i.i.i.i = bitcast i64* %62 to { i64, i64* }*
  call fastcc void @"_ZN5alloc7raw_vec19RawVec$LT$T$C$A$GT$16reserve_for_push17h6f5ebe96b2275d17E"({ i64, i64* }* noalias noundef nonnull align 8 dereferenceable(16) %_6.i.i.i.i.i.i, i64 %70) #23, !noalias !827
  %_13.pre.i.i.i.i.i.i = load i64, i64* %69, align 8, !alias.scope !828, !noalias !827
  br label %"_ZN6vecmap3map19VecMap$LT$K$C$V$GT$6insert17h5b2c0df4fde2c407E.exit.i.i.thread"

"_ZN6vecmap3map19VecMap$LT$K$C$V$GT$6insert17h5b2c0df4fde2c407E.exit.i.i.thread": ; preds = %bb2.i.i.i.i.i.i, %"bb2.i.i.i.i._ZN6vecmap3map19VecMap$LT$K$C$V$GT$4push17h2b2b40ad49a0bfdfE.exit.i.i.i.i_crit_edge"
  %84 = phi i64 [ %_13.pre.i.i.i.i.i.i, %bb2.i.i.i.i.i.i ], [ %.pre, %"bb2.i.i.i.i._ZN6vecmap3map19VecMap$LT$K$C$V$GT$4push17h2b2b40ad49a0bfdfE.exit.i.i.i.i_crit_edge" ]
  %_13.i.i.i.i.i.i = phi i64 [ %_13.pre.i.i.i.i.i.i, %bb2.i.i.i.i.i.i ], [ %70, %"bb2.i.i.i.i._ZN6vecmap3map19VecMap$LT$K$C$V$GT$4push17h2b2b40ad49a0bfdfE.exit.i.i.i.i_crit_edge" ]
  %85 = getelementptr inbounds i64, i64* %62, i64 1
  %86 = bitcast i64* %85 to { i64*, i64* }**
  %_21.i.i.i.i.i.i.i.i = load { i64*, i64* }*, { i64*, i64* }** %86, align 8, !alias.scope !829, !noalias !827, !nonnull !123
  %src.sroa.0.0..sroa_idx.i.i.i.i.i.i.i = getelementptr inbounds { i64*, i64* }, { i64*, i64* }* %_21.i.i.i.i.i.i.i.i, i64 %_13.i.i.i.i.i.i, i32 0
  store i64* %.0.i.i.i.i.i, i64** %src.sroa.0.0..sroa_idx.i.i.i.i.i.i.i, align 8, !noalias !834
  %src.sroa.2.0..sroa_idx1.i.i.i.i.i.i.i = getelementptr inbounds { i64*, i64* }, { i64*, i64* }* %_21.i.i.i.i.i.i.i.i, i64 %_13.i.i.i.i.i.i, i32 1
  store i64* %_6.i.i.i.i, i64** %src.sroa.2.0..sroa_idx1.i.i.i.i.i.i.i, align 8, !noalias !834
  %87 = add i64 %84, 1
  store i64 %87, i64* %69, align 8, !alias.scope !828, !noalias !827
  %.fca.0.gep.i.i.i.i56 = getelementptr inbounds { i64, i8* }, { i64, i8* }* %_4.i.i2.i.i, i64 0, i32 0
  store i64 0, i64* %.fca.0.gep.i.i.i.i56, align 8, !noalias !757
  %.fca.1.gep.i.i.i.i57 = getelementptr inbounds { i64, i8* }, { i64, i8* }* %_4.i.i2.i.i, i64 0, i32 1
  store i8* undef, i8** %.fca.1.gep.i.i.i.i57, align 8, !noalias !757
  br label %"_ZN70_$LT$soroban_sdk..env..Env$u20$as$u20$soroban_env_common..env..Env$GT$17put_contract_data17h0c20729bf81963beE.exit"

bb2.i.i.i.i.i:                                    ; preds = %"_ZN6vecmap3map19VecMap$LT$K$C$V$GT$12get_index_of28_$u7b$$u7b$closure$u7d$$u7d$17hc8c7989919caf1dbE.exit.i.i.i.i.i.i", %bb17.i.i.i.i.i.i
  %_32.i.i.i.i.i.i = icmp ult i64 %i.0.i.i.i.i.i.i, %70
  call void @llvm.assume(i1 %_32.i.i.i.i.i.i) #23, !noalias !776
  %88 = bitcast { i64*, i64* }* %old_slot.i.i.i.i to i8*
  call void @llvm.lifetime.start.p0i8(i64 16, i8* nonnull %88) #23, !noalias !835
  %89 = getelementptr inbounds [0 x { i64*, i64* }], [0 x { i64*, i64* }]* %_21.i.i1.i.i1.i.i.i.i, i64 0, i64 %i.0.i.i.i.i.i.i, i32 0
  %tmp.sroa.0.0.copyload4.i.i.i.i.i.i = load i64*, i64** %89, align 8, !alias.scope !836, !noalias !835
  %tmp.sroa.4.0..sroa_idx3.i.i.i.i.i.i = getelementptr inbounds [0 x { i64*, i64* }], [0 x { i64*, i64* }]* %_21.i.i1.i.i1.i.i.i.i, i64 0, i64 %i.0.i.i.i.i.i.i, i32 1
  %tmp.sroa.4.0.copyload5.i.i.i.i.i.i = load i64*, i64** %tmp.sroa.4.0..sroa_idx3.i.i.i.i.i.i, align 8, !alias.scope !836, !noalias !835
  store i64* %.0.i.i.i.i.i, i64** %89, align 8, !alias.scope !836, !noalias !835
  store i64* %_6.i.i.i.i, i64** %tmp.sroa.4.0..sroa_idx3.i.i.i.i.i.i, align 8, !alias.scope !836, !noalias !835
  %.fca.0.gep.i.i3.i.i = getelementptr inbounds { i64*, i64* }, { i64*, i64* }* %old_slot.i.i.i.i, i64 0, i32 0
  store i64* %tmp.sroa.0.0.copyload4.i.i.i.i.i.i, i64** %.fca.0.gep.i.i3.i.i, align 8, !noalias !835
  %.fca.1.gep.i.i4.i.i = getelementptr inbounds { i64*, i64* }, { i64*, i64* }* %old_slot.i.i.i.i, i64 0, i32 1
  store i64* %tmp.sroa.4.0.copyload5.i.i.i.i.i.i, i64** %.fca.1.gep.i.i4.i.i, align 8, !noalias !835
  %90 = bitcast i64* %tmp.sroa.0.0.copyload4.i.i.i.i.i.i to i8*
  call fastcc void @"_ZN64_$LT$alloc..rc..Rc$LT$T$GT$$u20$as$u20$core..ops..drop..Drop$GT$4drop17h2d1c005fc6f70b87E"(i64** noalias noundef nonnull align 8 dereferenceable(8) %.fca.1.gep.i.i4.i.i) #23, !noalias !835
  call void @llvm.lifetime.end.p0i8(i64 16, i8* nonnull %88) #23, !noalias !835
  %.fca.0.gep.i.i.i.i = getelementptr inbounds { i64, i8* }, { i64, i8* }* %_4.i.i2.i.i, i64 0, i32 0
  store i64 1, i64* %.fca.0.gep.i.i.i.i, align 8, !noalias !757
  %.fca.1.gep.i.i.i.i = getelementptr inbounds { i64, i8* }, { i64, i8* }* %_4.i.i2.i.i, i64 0, i32 1
  store i8* %90, i8** %.fca.1.gep.i.i.i.i, align 8, !noalias !757
  %91 = bitcast i8** %.fca.1.gep.i.i.i.i to i64**
  call fastcc void @"_ZN4core3ptr105drop_in_place$LT$core..option..Option$LT$alloc..rc..Rc$LT$stellar_xdr..next..generated..ScVal$GT$$GT$$GT$17h9a6db5bc3ce1296eE"(i64** nonnull %91) #23, !noalias !839
  br label %"_ZN70_$LT$soroban_sdk..env..Env$u20$as$u20$soroban_env_common..env..Env$GT$17put_contract_data17h0c20729bf81963beE.exit"

"_ZN70_$LT$soroban_sdk..env..Env$u20$as$u20$soroban_env_common..env..Env$GT$17put_contract_data17h0c20729bf81963beE.exit": ; preds = %bb2.i.i.i.i.i, %"_ZN6vecmap3map19VecMap$LT$K$C$V$GT$6insert17h5b2c0df4fde2c407E.exit.i.i.thread"
  call void @llvm.lifetime.end.p0i8(i64 16, i8* nonnull %64) #23, !noalias !757
  call void @llvm.lifetime.end.p0i8(i64 39, i8* nonnull %_6.sroa.4.0.sroa_idx4.i.i.i)
  %92 = load i64, i64* %59, align 8, !noalias !840
  %_6.i.i.i.i.i31 = add i64 %92, 1
  store i64 %_6.i.i.i.i.i31, i64* %59, align 8, !alias.scope !843, !noalias !840
  call fastcc void @"_ZN4core3ptr56drop_in_place$LT$stellar_xdr..next..generated..ScVal$GT$17h044a29ff334c2310E"(%"core::result::Result<stellar_xdr::next::generated::ScVal, raw_val::ConversionError>"* nonnull %_14.i.i) #23, !noalias !727
  call void @llvm.lifetime.end.p0i8(i64 40, i8* nonnull %55) #23, !noalias !727
  call fastcc void @"_ZN4core3ptr56drop_in_place$LT$stellar_xdr..next..generated..ScVal$GT$17h044a29ff334c2310E"(%"core::result::Result<stellar_xdr::next::generated::ScVal, raw_val::ConversionError>"* nonnull %_6.i.i) #23, !noalias !727
  call void @llvm.lifetime.end.p0i8(i64 40, i8* nonnull %51) #23, !noalias !727
  call fastcc void @"_ZN64_$LT$alloc..rc..Rc$LT$T$GT$$u20$as$u20$core..ops..drop..Drop$GT$4drop17h830fc5bba9825715E"(i64** noalias noundef nonnull align 8 dereferenceable(8) %_12.i.i.i.i) #23
  call void @llvm.lifetime.end.p0i8(i64 8, i8* nonnull %47) #23, !noalias !613
  call fastcc void @"_ZN64_$LT$alloc..rc..Rc$LT$T$GT$$u20$as$u20$core..ops..drop..Drop$GT$4drop17h830fc5bba9825715E"(i64** noalias noundef nonnull align 8 dereferenceable(8) %env.i.i.i.i) #23
  call void @llvm.lifetime.end.p0i8(i64 8, i8* nonnull %21) #23, !noalias !613
  call fastcc void @"_ZN64_$LT$alloc..rc..Rc$LT$T$GT$$u20$as$u20$core..ops..drop..Drop$GT$4drop17h830fc5bba9825715E"(i64** noalias noundef nonnull align 8 dereferenceable(8) %env.i.i.i) #23
  call void @llvm.lifetime.end.p0i8(i64 8, i8* nonnull %18) #23, !noalias !613
  call void @llvm.lifetime.end.p0i8(i64 10, i8* nonnull %5) #23, !noalias !613
  br label %"_ZN102_$LT$nostd_test_contract..IncrementContract$u20$as$u20$soroban_sdk..testutils..ContractFunctionSet$GT$4call17ha3c56bb01960f208E.exit"

bb9.i:                                            ; preds = %"_ZN89_$LT$soroban_env_common..symbol..SymbolStr$u20$as$u20$core..convert..AsRef$LT$str$GT$$GT$6as_ref17h672d462a0041b138E.exit"
  call void @llvm.lifetime.end.p0i8(i64 10, i8* nonnull %5) #23, !noalias !613
  call fastcc void @"_ZN64_$LT$alloc..rc..Rc$LT$T$GT$$u20$as$u20$core..ops..drop..Drop$GT$4drop17h830fc5bba9825715E"(i64** noalias noundef nonnull align 8 dereferenceable(8) %env.i) #23
  br label %"_ZN102_$LT$nostd_test_contract..IncrementContract$u20$as$u20$soroban_sdk..testutils..ContractFunctionSet$GT$4call17ha3c56bb01960f208E.exit"

"_ZN102_$LT$nostd_test_contract..IncrementContract$u20$as$u20$soroban_sdk..testutils..ContractFunctionSet$GT$4call17ha3c56bb01960f208E.exit": ; preds = %bb9.i, %"_ZN70_$LT$soroban_sdk..env..Env$u20$as$u20$soroban_env_common..env..Env$GT$17put_contract_data17h0c20729bf81963beE.exit"
  %.sroa.0.04.i = phi i64 [ 1, %"_ZN70_$LT$soroban_sdk..env..Env$u20$as$u20$soroban_env_common..env..Env$GT$17put_contract_data17h0c20729bf81963beE.exit" ], [ 0, %bb9.i ]
  %93 = insertvalue { i64, i64 } undef, i64 %.sroa.0.04.i, 0
  %94 = insertvalue { i64, i64 } %93, i64 17, 1
  call void @llvm.lifetime.end.p0i8(i64 8, i8* nonnull %4)
  ret { i64, i64 } %94
}

; Function Attrs: minsize nofree norecurse nosync nounwind nonlazybind optsize
define internal fastcc noundef i32 @"_ZN97_$LT$soroban_env_common..symbol..SymbolIter$u20$as$u20$core..iter..traits..iterator..Iterator$GT$4next17h4314665d7c0acf8aE"(i64* noalias nocapture noundef align 8 dereferenceable(8) %self) unnamed_addr #17 {
start:
  %_2.pr = load i64, i64* %self, align 8
  br label %bb1

bb1:                                              ; preds = %bb14, %start
  %_2 = phi i64 [ %8, %bb14 ], [ %_2.pr, %start ]
  %0 = icmp eq i64 %_2, 0
  br i1 %0, label %bb18, label %bb2

bb2:                                              ; preds = %bb1
  %_6 = lshr i64 %_2, 54
  %1 = trunc i64 %_6 to i8
  %_4 = and i8 %1, 63
  %2 = icmp eq i8 %_4, 1
  br i1 %2, label %bb15, label %bb3

bb3:                                              ; preds = %bb2
  %3 = add nsw i8 %_4, -1
  %4 = icmp ult i8 %3, 11
  br i1 %4, label %bb11, label %bb5

bb5:                                              ; preds = %bb3
  %5 = add nsw i8 %_4, -12
  %6 = icmp ult i8 %5, 26
  br i1 %6, label %bb12, label %bb7

bb11:                                             ; preds = %bb3
  %7 = add nuw nsw i8 %_4, 46
  br label %bb15

bb14:                                             ; preds = %bb7
  %8 = shl i64 %_2, 6
  store i64 %8, i64* %self, align 8
  br label %bb1

bb7:                                              ; preds = %bb5
  %_9 = icmp ugt i8 %_4, 37
  br i1 %_9, label %bb15.loopexit.split.loop.exit12, label %bb14

bb12:                                             ; preds = %bb5
  %9 = add nuw nsw i8 %_4, 53
  br label %bb15

bb15.loopexit.split.loop.exit12:                  ; preds = %bb7
  %10 = add nuw nsw i8 %_4, 59
  br label %bb15

bb15:                                             ; preds = %bb15.loopexit.split.loop.exit12, %bb12, %bb11, %bb2
  %res.0.ph = phi i8 [ %9, %bb12 ], [ %7, %bb11 ], [ %10, %bb15.loopexit.split.loop.exit12 ], [ 95, %bb2 ]
  %11 = shl i64 %_2, 6
  store i64 %11, i64* %self, align 8
  %_25 = zext i8 %res.0.ph to i32
  br label %bb18

bb18:                                             ; preds = %bb15, %bb1
  %.0 = phi i32 [ %_25, %bb15 ], [ 1114112, %bb1 ]
  ret i32 %.0
}

; Function Attrs: minsize mustprogress nofree nounwind nonlazybind optsize readonly willreturn
define internal fastcc noundef zeroext i1 @"_ZN4core5slice3cmp81_$LT$impl$u20$core..cmp..PartialEq$LT$$u5b$B$u5d$$GT$$u20$for$u20$$u5b$A$u5d$$GT$2eq17h9c065fd5cbcd098aE"([0 x i8]* noalias nocapture noundef nonnull readonly align 1 %self.0, i64 %self.1, [0 x i8]* noalias nocapture noundef nonnull readonly align 1 %other.0, i64 %other.1) unnamed_addr #18 {
start:
  %_3.not.i = icmp eq i64 %self.1, %other.1
  br i1 %_3.not.i, label %bb2.i, label %"_ZN73_$LT$$u5b$A$u5d$$u20$as$u20$core..slice..cmp..SlicePartialEq$LT$B$GT$$GT$5equal17h96c5f8ad8541a398E.exit"

bb2.i:                                            ; preds = %start
  %0 = getelementptr [0 x i8], [0 x i8]* %self.0, i64 0, i64 0
  %1 = getelementptr [0 x i8], [0 x i8]* %other.0, i64 0, i64 0
  %bcmp.i = tail call i32 @bcmp(i8* nonnull %0, i8* nonnull %1, i64 %self.1) #23, !alias.scope !846
  %2 = icmp eq i32 %bcmp.i, 0
  br label %"_ZN73_$LT$$u5b$A$u5d$$u20$as$u20$core..slice..cmp..SlicePartialEq$LT$B$GT$$GT$5equal17h96c5f8ad8541a398E.exit"

"_ZN73_$LT$$u5b$A$u5d$$u20$as$u20$core..slice..cmp..SlicePartialEq$LT$B$GT$$GT$5equal17h96c5f8ad8541a398E.exit": ; preds = %bb2.i, %start
  %.0.i = phi i1 [ %2, %bb2.i ], [ false, %start ]
  ret i1 %.0.i
}

; Function Attrs: minsize nounwind nonlazybind optsize
define internal fastcc void @"_ZN142_$LT$stellar_xdr..next..generated..ScVal$u20$as$u20$soroban_env_common..env_val..TryFromVal$LT$E$C$soroban_env_common..raw_val..RawVal$GT$$GT$12try_from_val17h3128a368050a0ff1E"(%"core::result::Result<stellar_xdr::next::generated::ScVal, raw_val::ConversionError>"* noalias nocapture noundef writeonly dereferenceable(40) %0, i64 %val.val) unnamed_addr #0 {
start:
  %_17.i.i.i.i.i.i.i = alloca i32, align 4
  %self.i.i.i.i = alloca i64, align 8
  %_81.sroa.6 = alloca [12 x i8], align 8
  %_80.sroa.7.sroa.0 = alloca [15 x i8], align 1
  %_63.sroa.5.sroa.0 = alloca [7 x i8], align 1
  %str = alloca %"string::String", align 8
  %_2.i = and i64 %val.val, 1
  %1 = icmp eq i64 %_2.i, 0
  br i1 %1, label %bb2, label %bb4

bb4:                                              ; preds = %start
  %2 = trunc i64 %val.val to i8
  %3 = lshr i8 %2, 1
  %4 = and i8 %3, 7
  switch i8 %4, label %bb7 [
    i8 0, label %bb8
    i8 1, label %bb10
    i8 2, label %bb12
    i8 3, label %bb31
    i8 4, label %bb40
    i8 5, label %bb52
    i8 6, label %bb54
    i8 7, label %bb6
  ]

bb2:                                              ; preds = %start
  %_2.i154 = lshr i64 %val.val, 1
  %_6.sroa.0.0..sroa_idx = getelementptr inbounds %"core::result::Result<stellar_xdr::next::generated::ScVal, raw_val::ConversionError>", %"core::result::Result<stellar_xdr::next::generated::ScVal, raw_val::ConversionError>"* %0, i64 0, i32 0
  store i8 11, i8* %_6.sroa.0.0..sroa_idx, align 8
  %_6.sroa.48.0..sroa_idx10 = getelementptr inbounds %"core::result::Result<stellar_xdr::next::generated::ScVal, raw_val::ConversionError>", %"core::result::Result<stellar_xdr::next::generated::ScVal, raw_val::ConversionError>"* %0, i64 0, i32 1, i64 7
  %_6.sroa.48.0..sroa_cast = bitcast i8* %_6.sroa.48.0..sroa_idx10 to i64*
  store i64 %_2.i154, i64* %_6.sroa.48.0..sroa_cast, align 8
  br label %bb66

bb7:                                              ; preds = %bb4
  unreachable

bb8:                                              ; preds = %bb4
  %5 = lshr i64 %val.val, 4
  %6 = trunc i64 %5 to i32
  %_12.sroa.0.0..sroa_idx = getelementptr inbounds %"core::result::Result<stellar_xdr::next::generated::ScVal, raw_val::ConversionError>", %"core::result::Result<stellar_xdr::next::generated::ScVal, raw_val::ConversionError>"* %0, i64 0, i32 0
  store i8 12, i8* %_12.sroa.0.0..sroa_idx, align 8
  %_12.sroa.420.0..sroa_idx22 = getelementptr inbounds %"core::result::Result<stellar_xdr::next::generated::ScVal, raw_val::ConversionError>", %"core::result::Result<stellar_xdr::next::generated::ScVal, raw_val::ConversionError>"* %0, i64 0, i32 1, i64 3
  %_12.sroa.420.0..sroa_cast = bitcast i8* %_12.sroa.420.0..sroa_idx22 to i32*
  store i32 %6, i32* %_12.sroa.420.0..sroa_cast, align 4
  br label %bb66

bb10:                                             ; preds = %bb4
  %7 = lshr i64 %val.val, 4
  %8 = trunc i64 %7 to i32
  %_15.sroa.0.0..sroa_idx = getelementptr inbounds %"core::result::Result<stellar_xdr::next::generated::ScVal, raw_val::ConversionError>", %"core::result::Result<stellar_xdr::next::generated::ScVal, raw_val::ConversionError>"* %0, i64 0, i32 0
  store i8 13, i8* %_15.sroa.0.0..sroa_idx, align 8
  %_15.sroa.432.0..sroa_idx34 = getelementptr inbounds %"core::result::Result<stellar_xdr::next::generated::ScVal, raw_val::ConversionError>", %"core::result::Result<stellar_xdr::next::generated::ScVal, raw_val::ConversionError>"* %0, i64 0, i32 1, i64 3
  %_15.sroa.432.0..sroa_cast = bitcast i8* %_15.sroa.432.0..sroa_idx34 to i32*
  store i32 %8, i32* %_15.sroa.432.0..sroa_cast, align 4
  br label %bb66

bb12:                                             ; preds = %bb4
  %.mask312 = lshr i64 %val.val, 4
  %9 = and i64 %.mask312, 268435455
  %10 = icmp ult i64 %9, 4
  br i1 %10, label %switch.lookup, label %bb25

bb31:                                             ; preds = %bb4
  tail call void @llvm.trap() #23
  unreachable

bb40:                                             ; preds = %bb4
  %11 = bitcast %"string::String"* %str to i8*
  call void @llvm.lifetime.start.p0i8(i64 24, i8* nonnull %11)
  %12 = lshr i64 %val.val, 4
  tail call void @llvm.experimental.noalias.scope.decl(metadata !850)
  %_1.sroa.0.0..sroa_idx.i.i = getelementptr inbounds %"string::String", %"string::String"* %str, i64 0, i32 0, i32 0, i32 0
  store i64 0, i64* %_1.sroa.0.0..sroa_idx.i.i, align 8, !alias.scope !853
  %_1.sroa.4.0..sroa_idx2.i.i = getelementptr inbounds %"string::String", %"string::String"* %str, i64 0, i32 0, i32 0, i32 1
  store i8* inttoptr (i64 1 to i8*), i8** %_1.sroa.4.0..sroa_idx2.i.i, align 8, !alias.scope !853
  %_1.sroa.5.0..sroa_idx4.i.i = getelementptr inbounds %"string::String", %"string::String"* %str, i64 0, i32 0, i32 1
  store i64 0, i64* %_1.sroa.5.0..sroa_idx4.i.i, align 8, !alias.scope !853
  tail call void @llvm.experimental.noalias.scope.decl(metadata !856) #23
  %_3.i.i.i = getelementptr inbounds %"string::String", %"string::String"* %str, i64 0, i32 0
  call fastcc void @"_ZN5alloc3vec16Vec$LT$T$C$A$GT$7reserve17h82869acb6daec1beE"(%"vec::Vec<u8>"* noalias noundef nonnull align 8 dereferenceable(24) %_3.i.i.i, i64 0) #23
  tail call void @llvm.experimental.noalias.scope.decl(metadata !859) #23
  tail call void @llvm.experimental.noalias.scope.decl(metadata !862) #23
  %13 = bitcast i64* %self.i.i.i.i to i8*
  call void @llvm.lifetime.start.p0i8(i64 8, i8* nonnull %13) #23, !noalias !865
  store i64 %12, i64* %self.i.i.i.i, align 8, !noalias !866
  %14 = bitcast i32* %_17.i.i.i.i.i.i.i to i8*
  %_14.04.i.i.i.i.i.i.i = bitcast i32* %_17.i.i.i.i.i.i.i to [0 x i8]*
  %b2.i.i.i.i.i.i.i.i.i = getelementptr inbounds [0 x i8], [0 x i8]* %_14.04.i.i.i.i.i.i.i, i64 0, i64 1
  %c3.i.i.i.i.i.i.i.i.i = getelementptr inbounds [0 x i8], [0 x i8]* %_14.04.i.i.i.i.i.i.i, i64 0, i64 2
  %d.i.i.i.i.i.i.i.i.i = getelementptr inbounds [0 x i8], [0 x i8]* %_14.04.i.i.i.i.i.i.i, i64 0, i64 3
  %15 = getelementptr inbounds i64, i64* %_1.sroa.0.0..sroa_idx.i.i, i64 2
  %_6.i.i.i.i.i.i.i.i = getelementptr inbounds %"string::String", %"string::String"* %str, i64 0, i32 0, i32 0
  %16 = getelementptr inbounds i64, i64* %_1.sroa.0.0..sroa_idx.i.i, i64 1
  %17 = bitcast i64* %16 to i8**
  %18 = ptrtoint i32* %_17.i.i.i.i.i.i.i to i64
  br label %bb1.i.i.i.i

bb1.i.i.i.i:                                      ; preds = %"_ZN4core4char7methods22_$LT$impl$u20$char$GT$11encode_utf817h77f51268d799b13dE.exit.i.i.i.i.i.i.i", %"_ZN5alloc3vec16Vec$LT$T$C$A$GT$4push17h884e5889aca7ead5E.exit.i.i.i.i.i.i.i", %bb40
  %19 = call fastcc noundef i32 @"_ZN97_$LT$soroban_env_common..symbol..SymbolIter$u20$as$u20$core..iter..traits..iterator..Iterator$GT$4next17h4314665d7c0acf8aE"(i64* noalias noundef nonnull align 8 dereferenceable(8) %self.i.i.i.i) #23, !range !622, !noalias !867
  %.not.i.i.i.i = icmp eq i32 %19, 1114112
  br i1 %.not.i.i.i.i, label %"_ZN95_$LT$alloc..string..String$u20$as$u20$core..iter..traits..collect..FromIterator$LT$char$GT$$GT$9from_iter17hcc8840a2c64684b1E.exit", label %bb3.i.i.i.i

bb3.i.i.i.i:                                      ; preds = %bb1.i.i.i.i
  call void @llvm.experimental.noalias.scope.decl(metadata !868) #23
  %_2.i.i.i.i.i.i.i.i.i = icmp ult i32 %19, 128
  br i1 %_2.i.i.i.i.i.i.i.i.i, label %bb3.i.i.i.i.i.i.i, label %bb2.i.i.i.i.i.i.i.i.i

bb2.i.i.i.i.i.i.i.i.i:                            ; preds = %bb3.i.i.i.i
  %_4.i.i.i.i.i.i.i.i.i = icmp ult i32 %19, 2048
  call void @llvm.lifetime.start.p0i8(i64 4, i8* nonnull %14) #23, !noalias !871
  store i32 0, i32* %_17.i.i.i.i.i.i.i, align 4, !noalias !871
  br i1 %_4.i.i.i.i.i.i.i.i.i, label %bb5.i.i.i.i.i.i.i.i.i, label %bb4.i.i.i.i.i.i.i.i.i.i

bb3.i.i.i.i.i.i.i:                                ; preds = %bb3.i.i.i.i
  %_6.i.i.i.i.i.i.i = trunc i32 %19 to i8
  %_4.i.i.i.i.i.i.i.i = load i64, i64* %15, align 8, !alias.scope !876, !noalias !879
  %20 = load i64, i64* %_1.sroa.0.0..sroa_idx.i.i, align 8, !alias.scope !880, !noalias !879
  %_3.i.i.i.i.i.i.i.i = icmp eq i64 %_4.i.i.i.i.i.i.i.i, %20
  br i1 %_3.i.i.i.i.i.i.i.i, label %bb2.i.i.i.i.i.i.i.i, label %"_ZN5alloc3vec16Vec$LT$T$C$A$GT$4push17h884e5889aca7ead5E.exit.i.i.i.i.i.i.i"

bb2.i.i.i.i.i.i.i.i:                              ; preds = %bb3.i.i.i.i.i.i.i
  call fastcc void @"_ZN5alloc7raw_vec19RawVec$LT$T$C$A$GT$16reserve_for_push17h0f5eadd2ccc21279E"({ i64, i8* }* noalias noundef nonnull align 8 dereferenceable(16) %_6.i.i.i.i.i.i.i.i, i64 %_4.i.i.i.i.i.i.i.i) #23, !noalias !879
  %_13.pre.i.i.i.i.i.i.i.i = load i64, i64* %15, align 8, !alias.scope !876, !noalias !879
  br label %"_ZN5alloc3vec16Vec$LT$T$C$A$GT$4push17h884e5889aca7ead5E.exit.i.i.i.i.i.i.i"

"_ZN5alloc3vec16Vec$LT$T$C$A$GT$4push17h884e5889aca7ead5E.exit.i.i.i.i.i.i.i": ; preds = %bb2.i.i.i.i.i.i.i.i, %bb3.i.i.i.i.i.i.i
  %21 = phi i64 [ %_13.pre.i.i.i.i.i.i.i.i, %bb2.i.i.i.i.i.i.i.i ], [ %_4.i.i.i.i.i.i.i.i, %bb3.i.i.i.i.i.i.i ]
  %_2.i.i.i.i.i.i.i.i.i.i = load i8*, i8** %17, align 8, !alias.scope !883, !noalias !879, !nonnull !123, !noundef !123
  %22 = getelementptr inbounds i8, i8* %_2.i.i.i.i.i.i.i.i.i.i, i64 %21
  store i8 %_6.i.i.i.i.i.i.i, i8* %22, align 1, !noalias !888
  %23 = add i64 %21, 1
  store i64 %23, i64* %15, align 8, !alias.scope !876, !noalias !879
  br label %bb1.i.i.i.i

bb4.i.i.i.i.i.i.i.i.i.i:                          ; preds = %bb2.i.i.i.i.i.i.i.i.i
  %_6.i.i.i.i.i.i.i.i.i.i = icmp ult i32 %19, 65536
  br i1 %_6.i.i.i.i.i.i.i.i.i.i, label %bb6.i.i.i.i.i.i.i.i.i, label %bb7.i.i.i.i.i.i.i.i.i

bb5.i.i.i.i.i.i.i.i.i:                            ; preds = %bb2.i.i.i.i.i.i.i.i.i
  %_30.i.i.i.i.i.i.i.i.i = lshr i32 %19, 6
  %24 = trunc i32 %_30.i.i.i.i.i.i.i.i.i to i8
  %25 = or i8 %24, -64
  store i8 %25, i8* %14, align 4, !alias.scope !889, !noalias !871
  %26 = trunc i32 %19 to i8
  %_32.i.i.i.i.i.i.i.i.i = and i8 %26, 63
  %27 = or i8 %_32.i.i.i.i.i.i.i.i.i, -128
  store i8 %27, i8* %b2.i.i.i.i.i.i.i.i.i, align 1, !alias.scope !889, !noalias !871
  br label %"_ZN4core4char7methods22_$LT$impl$u20$char$GT$11encode_utf817h77f51268d799b13dE.exit.i.i.i.i.i.i.i"

bb6.i.i.i.i.i.i.i.i.i:                            ; preds = %bb4.i.i.i.i.i.i.i.i.i.i
  %_40.i.i.i.i.i.i.i.i.i = lshr i32 %19, 12
  %28 = trunc i32 %_40.i.i.i.i.i.i.i.i.i to i8
  %29 = or i8 %28, -32
  store i8 %29, i8* %14, align 4, !alias.scope !889, !noalias !871
  %_44.i.i.i.i.i.i.i.i.i = lshr i32 %19, 6
  %30 = trunc i32 %_44.i.i.i.i.i.i.i.i.i to i8
  %_42.i.i.i.i.i.i.i.i.i = and i8 %30, 63
  %31 = or i8 %_42.i.i.i.i.i.i.i.i.i, -128
  store i8 %31, i8* %b2.i.i.i.i.i.i.i.i.i, align 1, !alias.scope !889, !noalias !871
  %32 = trunc i32 %19 to i8
  %_46.i.i.i.i.i.i.i.i.i = and i8 %32, 63
  %33 = or i8 %_46.i.i.i.i.i.i.i.i.i, -128
  store i8 %33, i8* %c3.i.i.i.i.i.i.i.i.i, align 2, !alias.scope !889, !noalias !871
  br label %"_ZN4core4char7methods22_$LT$impl$u20$char$GT$11encode_utf817h77f51268d799b13dE.exit.i.i.i.i.i.i.i"

bb7.i.i.i.i.i.i.i.i.i:                            ; preds = %bb4.i.i.i.i.i.i.i.i.i.i
  %_55.i.i.i.i.i.i.i.i.i = lshr i32 %19, 18
  %34 = trunc i32 %_55.i.i.i.i.i.i.i.i.i to i8
  %35 = or i8 %34, -16
  store i8 %35, i8* %14, align 4, !alias.scope !889, !noalias !871
  %_59.i.i.i.i.i.i.i.i.i = lshr i32 %19, 12
  %36 = trunc i32 %_59.i.i.i.i.i.i.i.i.i to i8
  %_57.i.i.i.i.i.i.i.i.i = and i8 %36, 63
  %37 = or i8 %_57.i.i.i.i.i.i.i.i.i, -128
  store i8 %37, i8* %b2.i.i.i.i.i.i.i.i.i, align 1, !alias.scope !889, !noalias !871
  %_63.i.i.i.i.i.i.i.i.i = lshr i32 %19, 6
  %38 = trunc i32 %_63.i.i.i.i.i.i.i.i.i to i8
  %_61.i.i.i.i.i.i.i.i.i = and i8 %38, 63
  %39 = or i8 %_61.i.i.i.i.i.i.i.i.i, -128
  store i8 %39, i8* %c3.i.i.i.i.i.i.i.i.i, align 2, !alias.scope !889, !noalias !871
  %40 = trunc i32 %19 to i8
  %_65.i.i.i.i.i.i.i.i.i = and i8 %40, 63
  %41 = or i8 %_65.i.i.i.i.i.i.i.i.i, -128
  store i8 %41, i8* %d.i.i.i.i.i.i.i.i.i, align 1, !alias.scope !889, !noalias !871
  br label %"_ZN4core4char7methods22_$LT$impl$u20$char$GT$11encode_utf817h77f51268d799b13dE.exit.i.i.i.i.i.i.i"

"_ZN4core4char7methods22_$LT$impl$u20$char$GT$11encode_utf817h77f51268d799b13dE.exit.i.i.i.i.i.i.i": ; preds = %bb7.i.i.i.i.i.i.i.i.i, %bb6.i.i.i.i.i.i.i.i.i, %bb5.i.i.i.i.i.i.i.i.i
  %.0.i14.i.i.i.i.i.i.i.i.i = phi i64 [ 2, %bb5.i.i.i.i.i.i.i.i.i ], [ 3, %bb6.i.i.i.i.i.i.i.i.i ], [ 4, %bb7.i.i.i.i.i.i.i.i.i ]
  call void @llvm.experimental.noalias.scope.decl(metadata !894) #23
  %42 = getelementptr inbounds [0 x i8], [0 x i8]* %_14.04.i.i.i.i.i.i.i, i64 0, i64 %.0.i14.i.i.i.i.i.i.i.i.i
  call void @llvm.experimental.noalias.scope.decl(metadata !897) #23, !noalias !879
  %43 = ptrtoint i8* %42 to i64
  %44 = sub nuw i64 %43, %18
  call void @llvm.experimental.noalias.scope.decl(metadata !900) #23, !noalias !879
  call fastcc void @"_ZN5alloc3vec16Vec$LT$T$C$A$GT$7reserve17h82869acb6daec1beE"(%"vec::Vec<u8>"* noalias noundef nonnull align 8 dereferenceable(24) %_3.i.i.i, i64 %44) #23, !noalias !879
  %45 = load i64, i64* %_1.sroa.5.0..sroa_idx4.i.i, align 8, !alias.scope !903, !noalias !906
  %_2.i.i.i.i.i.i.i = load i8*, i8** %_1.sroa.4.0..sroa_idx2.i.i, align 8, !alias.scope !908, !noalias !906, !nonnull !123, !noundef !123
  %46 = getelementptr inbounds i8, i8* %_2.i.i.i.i.i.i.i, i64 %45
  call void @llvm.memcpy.p0i8.p0i8.i64(i8* nonnull align 1 %46, i8* nonnull align 4 %14, i64 %44, i1 false) #23, !noalias !913
  %47 = add i64 %45, %44
  store i64 %47, i64* %_1.sroa.5.0..sroa_idx4.i.i, align 8, !alias.scope !914, !noalias !906
  call void @llvm.lifetime.end.p0i8(i64 4, i8* nonnull %14) #23, !noalias !871
  br label %bb1.i.i.i.i

"_ZN95_$LT$alloc..string..String$u20$as$u20$core..iter..traits..collect..FromIterator$LT$char$GT$$GT$9from_iter17hcc8840a2c64684b1E.exit": ; preds = %bb1.i.i.i.i
  call void @llvm.lifetime.end.p0i8(i64 8, i8* nonnull %13) #23, !noalias !865
  %_63.sroa.5.sroa.0.0.sroa_idx59 = getelementptr inbounds [7 x i8], [7 x i8]* %_63.sroa.5.sroa.0, i64 0, i64 0
  call void @llvm.lifetime.start.p0i8(i64 7, i8* nonnull %_63.sroa.5.sroa.0.0.sroa_idx59)
  %48 = bitcast i8** %_1.sroa.4.0..sroa_idx2.i.i to [0 x i8]**
  %_2.i.i1.i.i = load [0 x i8]*, [0 x i8]** %48, align 8, !alias.scope !915, !nonnull !123
  %_4.i.i = load i64, i64* %_1.sroa.5.0..sroa_idx4.i.i, align 8, !alias.scope !924
  %_2.i.i.i = icmp ugt i64 %_4.i.i, 4294967295
  %_5.i.i.i = trunc i64 %_4.i.i to i32
  %.sroa.3.0.i.i.i = select i1 %_2.i.i.i, i32 undef, i32 %_5.i.i.i
  %_2.i.i.i.not = xor i1 %_2.i.i.i, true
  %_13.i = icmp ult i32 %.sroa.3.0.i.i.i, 11
  %or.cond = select i1 %_2.i.i.i.not, i1 %_13.i, i1 false
  br i1 %or.cond, label %bb47, label %bb49

bb52:                                             ; preds = %bb4
  %_74.sroa.0.0..sroa_idx = getelementptr inbounds %"core::result::Result<stellar_xdr::next::generated::ScVal, raw_val::ConversionError>", %"core::result::Result<stellar_xdr::next::generated::ScVal, raw_val::ConversionError>"* %0, i64 0, i32 0
  store i8 17, i8* %_74.sroa.0.0..sroa_idx, align 8
  %_74.sroa.4135.0..sroa_idx137 = getelementptr inbounds %"core::result::Result<stellar_xdr::next::generated::ScVal, raw_val::ConversionError>", %"core::result::Result<stellar_xdr::next::generated::ScVal, raw_val::ConversionError>"* %0, i64 0, i32 1, i64 7
  %_74.sroa.4135.0..sroa_cast = bitcast i8* %_74.sroa.4135.0..sroa_idx137 to i64*
  store i64 %val.val, i64* %_74.sroa.4135.0..sroa_cast, align 8
  br label %bb66

bb54:                                             ; preds = %bb4
  %_80.sroa.7.sroa.0.0.sroa_idx99 = getelementptr inbounds [15 x i8], [15 x i8]* %_80.sroa.7.sroa.0, i64 0, i64 0
  call void @llvm.lifetime.start.p0i8(i64 15, i8* nonnull %_80.sroa.7.sroa.0.0.sroa_idx99)
  %_81.sroa.6.0.sroa_idx = getelementptr inbounds [12 x i8], [12 x i8]* %_81.sroa.6, i64 0, i64 0
  call void @llvm.lifetime.start.p0i8(i64 12, i8* nonnull %_81.sroa.6.0.sroa_idx)
  %49 = trunc i64 %val.val to i32
  %50 = icmp ult i32 %49, 16
  br i1 %50, label %bb58, label %bb3.i.i

bb3.i.i:                                          ; preds = %bb54
  %51 = lshr i32 %49, 4
  switch i32 %51, label %bb60 [
    i32 1, label %bb5.i.i
    i32 2, label %bb15.i.i
    i32 3, label %bb25.i.i
    i32 4, label %bb35.i.i
    i32 5, label %bb45.i.i
    i32 6, label %bb55.i.i
    i32 7, label %bb65.i.i
    i32 8, label %bb75.i.i
  ]

bb5.i.i:                                          ; preds = %bb3.i.i
  %52 = lshr i64 %val.val, 32
  %53 = trunc i64 %52 to i32
  switch i32 %53, label %bb60 [
    i32 0, label %bb58
    i32 1, label %bb3.i.i.i
  ]

bb3.i.i.i:                                        ; preds = %bb5.i.i
  br label %bb58

bb15.i.i:                                         ; preds = %bb3.i.i
  %54 = lshr i64 %val.val, 32
  %55 = trunc i64 %54 to i32
  %56 = icmp ult i32 %55, 12
  %_24.i.i.sroa.0.0 = select i1 %56, i32 %55, i32 undef
  br i1 %56, label %bb58, label %bb60

bb25.i.i:                                         ; preds = %bb3.i.i
  %57 = lshr i64 %val.val, 32
  %58 = trunc i64 %57 to i32
  %59 = icmp ult i32 %58, 7
  %_37.i.i.sroa.0.0 = select i1 %59, i32 %58, i32 undef
  br i1 %59, label %bb58, label %bb60

bb35.i.i:                                         ; preds = %bb3.i.i
  %60 = lshr i64 %val.val, 32
  %61 = trunc i64 %60 to i32
  %62 = icmp ult i32 %61, 5
  %_50.i.i.sroa.0.0 = select i1 %62, i32 %61, i32 undef
  br i1 %62, label %bb58, label %bb60

bb45.i.i:                                         ; preds = %bb3.i.i
  %63 = lshr i64 %val.val, 32
  %64 = trunc i64 %63 to i32
  %65 = icmp ult i32 %64, 6
  %_63.i.i.sroa.0.0 = select i1 %65, i32 %64, i32 undef
  br i1 %65, label %bb58, label %bb60

bb55.i.i:                                         ; preds = %bb3.i.i
  %66 = lshr i64 %val.val, 32
  %67 = trunc i64 %66 to i32
  switch i32 %67, label %bb60 [
    i32 0, label %bb58
    i32 1, label %bb3.i40.i.i
  ]

bb3.i40.i.i:                                      ; preds = %bb55.i.i
  br label %bb58

bb65.i.i:                                         ; preds = %bb3.i.i
  %68 = lshr i64 %val.val, 32
  %69 = trunc i64 %68 to i32
  %70 = icmp ult i32 %69, 19
  %_89.i.i.sroa.0.0 = select i1 %70, i32 %69, i32 undef
  br i1 %70, label %bb58, label %bb60

bb75.i.i:                                         ; preds = %bb3.i.i
  %71 = lshr i64 %val.val, 32
  %72 = trunc i64 %71 to i32
  br label %bb58

bb6:                                              ; preds = %bb4
  %73 = getelementptr inbounds %"core::result::Result<stellar_xdr::next::generated::ScVal, raw_val::ConversionError>", %"core::result::Result<stellar_xdr::next::generated::ScVal, raw_val::ConversionError>"* %0, i64 0, i32 0
  store i8 19, i8* %73, align 8
  br label %bb66

bb58:                                             ; preds = %bb75.i.i, %bb65.i.i, %bb3.i40.i.i, %bb55.i.i, %bb45.i.i, %bb35.i.i, %bb25.i.i, %bb15.i.i, %bb3.i.i.i, %bb5.i.i, %bb54
  %_5.i.sroa.0.sroa.12.0.ph = phi i32 [ %_89.i.i.sroa.0.0, %bb65.i.i ], [ %_63.i.i.sroa.0.0, %bb45.i.i ], [ %_50.i.i.sroa.0.0, %bb35.i.i ], [ %_37.i.i.sroa.0.0, %bb25.i.i ], [ %_24.i.i.sroa.0.0, %bb15.i.i ], [ undef, %bb54 ], [ %72, %bb75.i.i ], [ 1, %bb3.i.i.i ], [ %53, %bb5.i.i ], [ 1, %bb3.i40.i.i ], [ %67, %bb55.i.i ]
  %_5.i.sroa.0.sroa.0.0.ph = phi i32 [ 7, %bb65.i.i ], [ 5, %bb45.i.i ], [ 4, %bb35.i.i ], [ 3, %bb25.i.i ], [ 2, %bb15.i.i ], [ 0, %bb54 ], [ 8, %bb75.i.i ], [ 1, %bb5.i.i ], [ 1, %bb3.i.i.i ], [ 6, %bb55.i.i ], [ 6, %bb3.i40.i.i ]
  %_5.i.sroa.0.sroa.12.0.insert.ext291 = zext i32 %_5.i.sroa.0.sroa.12.0.ph to i64
  %_5.i.sroa.0.sroa.12.0.insert.shift292 = shl nuw i64 %_5.i.sroa.0.sroa.12.0.insert.ext291, 32
  %_5.i.sroa.0.sroa.0.0.insert.ext293 = zext i32 %_5.i.sroa.0.sroa.0.0.ph to i64
  %_5.i.sroa.0.sroa.0.0.insert.insert294 = or i64 %_5.i.sroa.0.sroa.12.0.insert.shift292, %_5.i.sroa.0.sroa.0.0.insert.ext293
  %_81.sroa.6.0.sroa_cast102 = bitcast [12 x i8]* %_81.sroa.6 to i64*
  store i64 %_5.i.sroa.0.sroa.0.0.insert.insert294, i64* %_81.sroa.6.0.sroa_cast102, align 8, !alias.scope !925
  %_80.sroa.7.sroa.0.3.sroa_idx = getelementptr inbounds [15 x i8], [15 x i8]* %_80.sroa.7.sroa.0, i64 0, i64 3
  call void @llvm.memcpy.p0i8.p0i8.i64(i8* noundef nonnull align 1 dereferenceable(12) %_80.sroa.7.sroa.0.3.sroa_idx, i8* noundef nonnull align 8 dereferenceable(12) %_81.sroa.6.0.sroa_idx, i64 12, i1 false), !alias.scope !928
  call void @llvm.lifetime.end.p0i8(i64 12, i8* nonnull %_81.sroa.6.0.sroa_idx)
  %_80.sroa.7.sroa.0.0._79.sroa.5.0..sroa_idx.sroa_idx = getelementptr inbounds %"core::result::Result<stellar_xdr::next::generated::ScVal, raw_val::ConversionError>", %"core::result::Result<stellar_xdr::next::generated::ScVal, raw_val::ConversionError>"* %0, i64 0, i32 1, i64 0
  call void @llvm.memcpy.p0i8.p0i8.i64(i8* noundef nonnull align 1 dereferenceable(15) %_80.sroa.7.sroa.0.0._79.sroa.5.0..sroa_idx.sroa_idx, i8* noundef nonnull align 1 dereferenceable(15) %_80.sroa.7.sroa.0.0.sroa_idx99, i64 15, i1 false)
  %_79.sroa.0.0..sroa_idx = getelementptr inbounds %"core::result::Result<stellar_xdr::next::generated::ScVal, raw_val::ConversionError>", %"core::result::Result<stellar_xdr::next::generated::ScVal, raw_val::ConversionError>"* %0, i64 0, i32 0
  store i8 18, i8* %_79.sroa.0.0..sroa_idx, align 8
  call void @llvm.lifetime.end.p0i8(i64 15, i8* nonnull %_80.sroa.7.sroa.0.0.sroa_idx99)
  br label %bb66

bb60:                                             ; preds = %bb65.i.i, %bb55.i.i, %bb45.i.i, %bb35.i.i, %bb25.i.i, %bb15.i.i, %bb5.i.i, %bb3.i.i
  %_5.i.sroa.0.sroa.12.0 = phi i32 [ undef, %bb3.i.i ], [ undef, %bb5.i.i ], [ undef, %bb55.i.i ], [ undef, %bb15.i.i ], [ undef, %bb25.i.i ], [ undef, %bb35.i.i ], [ undef, %bb45.i.i ], [ undef, %bb65.i.i ]
  %_5.i.sroa.0.sroa.0.0 = phi i32 [ undef, %bb3.i.i ], [ undef, %bb5.i.i ], [ undef, %bb55.i.i ], [ %_24.i.i.sroa.0.0, %bb15.i.i ], [ %_37.i.i.sroa.0.0, %bb25.i.i ], [ %_50.i.i.sroa.0.0, %bb35.i.i ], [ %_63.i.i.sroa.0.0, %bb45.i.i ], [ %_89.i.i.sroa.0.0, %bb65.i.i ]
  %_5.i.sroa.20.0 = phi i8 [ 2, %bb3.i.i ], [ 2, %bb5.i.i ], [ 2, %bb55.i.i ], [ 2, %bb15.i.i ], [ 2, %bb25.i.i ], [ 2, %bb35.i.i ], [ 2, %bb45.i.i ], [ 2, %bb65.i.i ]
  %_5.i.sroa.0.sroa.12.0.insert.ext = zext i32 %_5.i.sroa.0.sroa.12.0 to i64
  %_5.i.sroa.0.sroa.12.0.insert.shift = shl nuw i64 %_5.i.sroa.0.sroa.12.0.insert.ext, 32
  %_5.i.sroa.0.sroa.0.0.insert.ext = zext i32 %_5.i.sroa.0.sroa.0.0 to i64
  %_5.i.sroa.0.sroa.0.0.insert.insert = or i64 %_5.i.sroa.0.sroa.12.0.insert.shift, %_5.i.sroa.0.sroa.0.0.insert.ext
  %_81.sroa.6.4.sroa_idx105 = getelementptr inbounds [12 x i8], [12 x i8]* %_81.sroa.6, i64 0, i64 4
  %_81.sroa.6.4.sroa_cast = bitcast i8* %_81.sroa.6.4.sroa_idx105 to i64*
  store i64 %_5.i.sroa.0.sroa.0.0.insert.insert, i64* %_81.sroa.6.4.sroa_cast, align 4, !alias.scope !932
  call void @llvm.lifetime.end.p0i8(i64 12, i8* nonnull %_81.sroa.6.0.sroa_idx)
  %74 = getelementptr inbounds %"core::result::Result<stellar_xdr::next::generated::ScVal, raw_val::ConversionError>", %"core::result::Result<stellar_xdr::next::generated::ScVal, raw_val::ConversionError>"* %0, i64 0, i32 0
  store i8 19, i8* %74, align 8, !alias.scope !936
  call void @llvm.lifetime.end.p0i8(i64 15, i8* nonnull %_80.sroa.7.sroa.0.0.sroa_idx99)
  br label %bb66

bb47:                                             ; preds = %"_ZN95_$LT$alloc..string..String$u20$as$u20$core..iter..traits..collect..FromIterator$LT$char$GT$$GT$9from_iter17hcc8840a2c64684b1E.exit"
  %75 = call fastcc { i64, i8* } @"_ZN5alloc7raw_vec19RawVec$LT$T$C$A$GT$11allocate_in17he82cf890ab5333e2E"(i64 %_4.i.i) #23, !noalias !939
  %_3.0.i.i.i.i.i.i = extractvalue { i64, i8* } %75, 0
  %_3.1.i.i.i.i.i.i = extractvalue { i64, i8* } %75, 1
  %76 = getelementptr [0 x i8], [0 x i8]* %_2.i.i1.i.i, i64 0, i64 0
  call void @llvm.memcpy.p0i8.p0i8.i64(i8* align 1 %_3.1.i.i.i.i.i.i, i8* nonnull align 1 %76, i64 %_4.i.i, i1 false) #23, !noalias !943
  %_66.sroa.7.sroa.0.0.extract.trunc = trunc i64 %_3.0.i.i.i.i.i.i to i32
  %_66.sroa.7.sroa.7.0.extract.shift = and i64 %_3.0.i.i.i.i.i.i, -4294967296
  %_66.sroa.7.sroa.0.0.insert.ext = zext i32 %_66.sroa.7.sroa.0.0.extract.trunc to i64
  %_66.sroa.7.sroa.0.0.insert.insert = or i64 %_66.sroa.7.sroa.7.0.extract.shift, %_66.sroa.7.sroa.0.0.insert.ext
  %_63.sroa.0.0..sroa_idx = getelementptr inbounds %"core::result::Result<stellar_xdr::next::generated::ScVal, raw_val::ConversionError>", %"core::result::Result<stellar_xdr::next::generated::ScVal, raw_val::ConversionError>"* %0, i64 0, i32 0
  store i8 16, i8* %_63.sroa.0.0..sroa_idx, align 8
  %_63.sroa.5.sroa.0.0..sroa_idx = getelementptr inbounds %"core::result::Result<stellar_xdr::next::generated::ScVal, raw_val::ConversionError>", %"core::result::Result<stellar_xdr::next::generated::ScVal, raw_val::ConversionError>"* %0, i64 0, i32 1, i64 0
  call void @llvm.memcpy.p0i8.p0i8.i64(i8* noundef nonnull align 1 dereferenceable(7) %_63.sroa.5.sroa.0.0..sroa_idx, i8* noundef nonnull align 1 dereferenceable(7) %_63.sroa.5.sroa.0.0.sroa_idx59, i64 7, i1 false)
  %_63.sroa.5.sroa.4.0..sroa_idx = getelementptr inbounds %"core::result::Result<stellar_xdr::next::generated::ScVal, raw_val::ConversionError>", %"core::result::Result<stellar_xdr::next::generated::ScVal, raw_val::ConversionError>"* %0, i64 0, i32 1, i64 7
  %_63.sroa.5.sroa.4.0..sroa_cast = bitcast i8* %_63.sroa.5.sroa.4.0..sroa_idx to i64*
  store i64 %_66.sroa.7.sroa.0.0.insert.insert, i64* %_63.sroa.5.sroa.4.0..sroa_cast, align 1
  %_63.sroa.5.sroa.5.0..sroa_idx = getelementptr inbounds %"core::result::Result<stellar_xdr::next::generated::ScVal, raw_val::ConversionError>", %"core::result::Result<stellar_xdr::next::generated::ScVal, raw_val::ConversionError>"* %0, i64 0, i32 1, i64 15
  %_63.sroa.5.sroa.5.0..sroa_cast = bitcast i8* %_63.sroa.5.sroa.5.0..sroa_idx to i8**
  store i8* %_3.1.i.i.i.i.i.i, i8** %_63.sroa.5.sroa.5.0..sroa_cast, align 1
  %_63.sroa.5.sroa.6.0..sroa_idx = getelementptr inbounds %"core::result::Result<stellar_xdr::next::generated::ScVal, raw_val::ConversionError>", %"core::result::Result<stellar_xdr::next::generated::ScVal, raw_val::ConversionError>"* %0, i64 0, i32 1, i64 23
  %_63.sroa.5.sroa.6.0..sroa_cast = bitcast i8* %_63.sroa.5.sroa.6.0..sroa_idx to i64*
  store i64 %_4.i.i, i64* %_63.sroa.5.sroa.6.0..sroa_cast, align 1
  call void @llvm.lifetime.end.p0i8(i64 7, i8* nonnull %_63.sroa.5.sroa.0.0.sroa_idx59)
  call fastcc void @"_ZN77_$LT$alloc..raw_vec..RawVec$LT$T$C$A$GT$$u20$as$u20$core..ops..drop..Drop$GT$4drop17h26a5ac32e7c71895E"({ i64, i8* }* noalias noundef nonnull align 8 dereferenceable(16) %_6.i.i.i.i.i.i.i.i) #23
  call void @llvm.lifetime.end.p0i8(i64 24, i8* nonnull %11)
  br label %bb66

bb49:                                             ; preds = %"_ZN95_$LT$alloc..string..String$u20$as$u20$core..iter..traits..collect..FromIterator$LT$char$GT$$GT$9from_iter17hcc8840a2c64684b1E.exit"
  %77 = getelementptr inbounds %"core::result::Result<stellar_xdr::next::generated::ScVal, raw_val::ConversionError>", %"core::result::Result<stellar_xdr::next::generated::ScVal, raw_val::ConversionError>"* %0, i64 0, i32 0
  store i8 19, i8* %77, align 8, !alias.scope !952
  call void @llvm.lifetime.end.p0i8(i64 7, i8* nonnull %_63.sroa.5.sroa.0.0.sroa_idx59)
  call fastcc void @"_ZN77_$LT$alloc..raw_vec..RawVec$LT$T$C$A$GT$$u20$as$u20$core..ops..drop..Drop$GT$4drop17h26a5ac32e7c71895E"({ i64, i8* }* noalias noundef nonnull align 8 dereferenceable(16) %_6.i.i.i.i.i.i.i.i) #23
  call void @llvm.lifetime.end.p0i8(i64 24, i8* nonnull %11)
  br label %bb66

bb66:                                             ; preds = %switch.lookup, %bb49, %bb47, %bb60, %bb58, %bb6, %bb52, %bb10, %bb8, %bb2
  ret void

switch.lookup:                                    ; preds = %bb12
  %switch.idx.cast = trunc i64 %9 to i32
  %_35.sroa.0.0..sroa_idx = getelementptr inbounds %"core::result::Result<stellar_xdr::next::generated::ScVal, raw_val::ConversionError>", %"core::result::Result<stellar_xdr::next::generated::ScVal, raw_val::ConversionError>"* %0, i64 0, i32 0
  store i8 14, i8* %_35.sroa.0.0..sroa_idx, align 8
  %_35.sroa.484.0..sroa_idx86 = getelementptr inbounds %"core::result::Result<stellar_xdr::next::generated::ScVal, raw_val::ConversionError>", %"core::result::Result<stellar_xdr::next::generated::ScVal, raw_val::ConversionError>"* %0, i64 0, i32 1, i64 3
  %_35.sroa.484.0..sroa_cast = bitcast i8* %_35.sroa.484.0..sroa_idx86 to i32*
  store i32 %switch.idx.cast, i32* %_35.sroa.484.0..sroa_cast, align 4
  br label %bb66

bb25:                                             ; preds = %bb12
  tail call void @llvm.trap() #23
  unreachable
}

; Function Attrs: inlinehint minsize nofree nounwind nonlazybind optsize
define internal fastcc noundef zeroext i1 @"_ZN76_$LT$stellar_xdr..next..generated..ScVal$u20$as$u20$core..cmp..PartialEq$GT$2eq17hcf33e2e82326904bE"(%"core::result::Result<stellar_xdr::next::generated::ScVal, raw_val::ConversionError>"* noalias nocapture noundef readonly align 8 dereferenceable(40) %self, %"core::result::Result<stellar_xdr::next::generated::ScVal, raw_val::ConversionError>"* noalias nocapture noundef readonly align 8 dereferenceable(40) %other) unnamed_addr #19 {
start:
  %0 = getelementptr inbounds %"core::result::Result<stellar_xdr::next::generated::ScVal, raw_val::ConversionError>", %"core::result::Result<stellar_xdr::next::generated::ScVal, raw_val::ConversionError>"* %self, i64 0, i32 0
  %1 = load i8, i8* %0, align 8, !range !552, !noundef !123
  %2 = icmp ugt i8 %1, 10
  %3 = add nsw i8 %1, -11
  %narrow = select i1 %2, i8 %3, i8 4
  %4 = getelementptr inbounds %"core::result::Result<stellar_xdr::next::generated::ScVal, raw_val::ConversionError>", %"core::result::Result<stellar_xdr::next::generated::ScVal, raw_val::ConversionError>"* %other, i64 0, i32 0
  %5 = load i8, i8* %4, align 8, !range !552, !noundef !123
  %6 = icmp ugt i8 %5, 10
  %7 = add nsw i8 %5, -11
  %narrow17 = select i1 %6, i8 %7, i8 4
  %_7 = icmp eq i8 %narrow, %narrow17
  br i1 %_7, label %bb2, label %bb3

bb2:                                              ; preds = %start
  switch i8 %narrow, label %bb5 [
    i8 0, label %bb4
    i8 1, label %bb6
    i8 2, label %bb7
    i8 3, label %bb8
    i8 4, label %bb9
    i8 5, label %bb10
    i8 6, label %bb11
    i8 7, label %bb12
  ]

bb5:                                              ; preds = %bb2
  unreachable

bb4:                                              ; preds = %bb2
  %__self_013 = getelementptr inbounds %"core::result::Result<stellar_xdr::next::generated::ScVal, raw_val::ConversionError>", %"core::result::Result<stellar_xdr::next::generated::ScVal, raw_val::ConversionError>"* %self, i64 0, i32 1, i64 7
  %8 = bitcast i8* %__self_013 to i64*
  %__arg1_014 = getelementptr inbounds %"core::result::Result<stellar_xdr::next::generated::ScVal, raw_val::ConversionError>", %"core::result::Result<stellar_xdr::next::generated::ScVal, raw_val::ConversionError>"* %other, i64 0, i32 1, i64 7
  %9 = bitcast i8* %__arg1_014 to i64*
  %_25 = load i64, i64* %8, align 8
  %_26 = load i64, i64* %9, align 8
  %10 = icmp eq i64 %_25, %_26
  br label %bb3

bb6:                                              ; preds = %bb2
  %__self_011 = getelementptr inbounds %"core::result::Result<stellar_xdr::next::generated::ScVal, raw_val::ConversionError>", %"core::result::Result<stellar_xdr::next::generated::ScVal, raw_val::ConversionError>"* %self, i64 0, i32 1, i64 3
  %11 = bitcast i8* %__self_011 to i32*
  %__arg1_012 = getelementptr inbounds %"core::result::Result<stellar_xdr::next::generated::ScVal, raw_val::ConversionError>", %"core::result::Result<stellar_xdr::next::generated::ScVal, raw_val::ConversionError>"* %other, i64 0, i32 1, i64 3
  %12 = bitcast i8* %__arg1_012 to i32*
  %_29 = load i32, i32* %11, align 4
  %_30 = load i32, i32* %12, align 4
  %13 = icmp eq i32 %_29, %_30
  br label %bb3

bb7:                                              ; preds = %bb2
  %__self_09 = getelementptr inbounds %"core::result::Result<stellar_xdr::next::generated::ScVal, raw_val::ConversionError>", %"core::result::Result<stellar_xdr::next::generated::ScVal, raw_val::ConversionError>"* %self, i64 0, i32 1, i64 3
  %14 = bitcast i8* %__self_09 to i32*
  %__arg1_010 = getelementptr inbounds %"core::result::Result<stellar_xdr::next::generated::ScVal, raw_val::ConversionError>", %"core::result::Result<stellar_xdr::next::generated::ScVal, raw_val::ConversionError>"* %other, i64 0, i32 1, i64 3
  %15 = bitcast i8* %__arg1_010 to i32*
  %_33 = load i32, i32* %14, align 4
  %_34 = load i32, i32* %15, align 4
  %16 = icmp eq i32 %_33, %_34
  br label %bb3

bb8:                                              ; preds = %bb2
  %__self_07 = getelementptr inbounds %"core::result::Result<stellar_xdr::next::generated::ScVal, raw_val::ConversionError>", %"core::result::Result<stellar_xdr::next::generated::ScVal, raw_val::ConversionError>"* %self, i64 0, i32 1, i64 3
  %17 = bitcast i8* %__self_07 to i32*
  %__arg1_08 = getelementptr inbounds %"core::result::Result<stellar_xdr::next::generated::ScVal, raw_val::ConversionError>", %"core::result::Result<stellar_xdr::next::generated::ScVal, raw_val::ConversionError>"* %other, i64 0, i32 1, i64 3
  %18 = bitcast i8* %__arg1_08 to i32*
  tail call void @llvm.experimental.noalias.scope.decl(metadata !955)
  tail call void @llvm.experimental.noalias.scope.decl(metadata !958)
  %__self_tag.i = load i32, i32* %17, align 4, !range !960, !alias.scope !955, !noalias !958, !noundef !123
  %__arg1_tag.i = load i32, i32* %18, align 4, !range !960, !alias.scope !958, !noalias !955, !noundef !123
  %19 = icmp eq i32 %__self_tag.i, %__arg1_tag.i
  br label %bb3

bb9:                                              ; preds = %bb2
  tail call void @llvm.experimental.noalias.scope.decl(metadata !961)
  tail call void @llvm.experimental.noalias.scope.decl(metadata !964)
  %20 = icmp eq i8 %1, 10
  %21 = icmp eq i8 %5, 10
  %brmerge = or i1 %20, %21
  %.mux = and i1 %20, %21
  br i1 %brmerge, label %bb3, label %bb4.i

bb4.i:                                            ; preds = %bb9
  tail call void @llvm.experimental.noalias.scope.decl(metadata !966) #23
  tail call void @llvm.experimental.noalias.scope.decl(metadata !969) #23
  %_7.i.i = icmp eq i8 %1, %5
  br i1 %_7.i.i, label %bb2.i.i, label %bb3

bb2.i.i:                                          ; preds = %bb4.i
  %__self_tag.i.i19 = zext i8 %1 to i64
  switch i64 %__self_tag.i.i19, label %bb5.i.i [
    i64 0, label %bb4.i.i
    i64 1, label %bb6.i.i
    i64 2, label %bb7.i.i
    i64 3, label %bb8.i.i
    i64 4, label %bb9.i.i
    i64 5, label %bb10.i.i
    i64 6, label %bb11.i.i
    i64 7, label %bb12.i.i
    i64 8, label %bb13.i.i
    i64 9, label %bb14.i.i
  ]

bb5.i.i:                                          ; preds = %bb2.i.i
  unreachable

bb4.i.i:                                          ; preds = %bb2.i.i
  %22 = icmp eq i8 %1, 0
  tail call void @llvm.assume(i1 %22) #23
  tail call void @llvm.experimental.noalias.scope.decl(metadata !971)
  tail call void @llvm.experimental.noalias.scope.decl(metadata !974)
  tail call void @llvm.experimental.noalias.scope.decl(metadata !976) #23
  tail call void @llvm.experimental.noalias.scope.decl(metadata !979) #23
  %23 = getelementptr inbounds %"core::result::Result<stellar_xdr::next::generated::ScVal, raw_val::ConversionError>", %"core::result::Result<stellar_xdr::next::generated::ScVal, raw_val::ConversionError>"* %self, i64 0, i32 1, i64 15
  %24 = bitcast i8* %23 to [0 x %"core::result::Result<stellar_xdr::next::generated::ScVal, raw_val::ConversionError>"]**
  %_21.i.i1.i.i.i.i46 = load [0 x %"core::result::Result<stellar_xdr::next::generated::ScVal, raw_val::ConversionError>"]*, [0 x %"core::result::Result<stellar_xdr::next::generated::ScVal, raw_val::ConversionError>"]** %24, align 8, !alias.scope !981, !noalias !990, !nonnull !123
  %25 = getelementptr inbounds %"core::result::Result<stellar_xdr::next::generated::ScVal, raw_val::ConversionError>", %"core::result::Result<stellar_xdr::next::generated::ScVal, raw_val::ConversionError>"* %self, i64 0, i32 1, i64 23
  %26 = bitcast i8* %25 to i64*
  %_4.i.i.i.i47 = load i64, i64* %26, align 8, !alias.scope !991, !noalias !990
  %27 = getelementptr inbounds %"core::result::Result<stellar_xdr::next::generated::ScVal, raw_val::ConversionError>", %"core::result::Result<stellar_xdr::next::generated::ScVal, raw_val::ConversionError>"* %other, i64 0, i32 1, i64 15
  %28 = bitcast i8* %27 to [0 x %"core::result::Result<stellar_xdr::next::generated::ScVal, raw_val::ConversionError>"]**
  %_21.i.i1.i.i1.i.i48 = load [0 x %"core::result::Result<stellar_xdr::next::generated::ScVal, raw_val::ConversionError>"]*, [0 x %"core::result::Result<stellar_xdr::next::generated::ScVal, raw_val::ConversionError>"]** %28, align 8, !alias.scope !992, !noalias !1001, !nonnull !123
  %29 = getelementptr inbounds %"core::result::Result<stellar_xdr::next::generated::ScVal, raw_val::ConversionError>", %"core::result::Result<stellar_xdr::next::generated::ScVal, raw_val::ConversionError>"* %other, i64 0, i32 1, i64 23
  %30 = bitcast i8* %29 to i64*
  %_4.i.i2.i.i49 = load i64, i64* %30, align 8, !alias.scope !1002, !noalias !1001
  %_3.not.i = icmp eq i64 %_4.i.i.i.i47, %_4.i.i2.i.i49
  br i1 %_3.not.i, label %bb1.i.i, label %bb3

bb1.i.i:                                          ; preds = %bb3.i.i, %bb4.i.i
  %_9.sroa.8.0.i = phi i64 [ %31, %bb3.i.i ], [ 0, %bb4.i.i ]
  %exitcond.not.i = icmp eq i64 %_9.sroa.8.0.i, %_4.i.i.i.i47
  br i1 %exitcond.not.i, label %bb7.loopexit.i, label %bb3.i.i

bb3.i.i:                                          ; preds = %bb1.i.i
  %31 = add i64 %_9.sroa.8.0.i, 1
  %32 = getelementptr inbounds [0 x %"core::result::Result<stellar_xdr::next::generated::ScVal, raw_val::ConversionError>"], [0 x %"core::result::Result<stellar_xdr::next::generated::ScVal, raw_val::ConversionError>"]* %_21.i.i1.i.i.i.i46, i64 0, i64 %_9.sroa.8.0.i
  %33 = getelementptr inbounds [0 x %"core::result::Result<stellar_xdr::next::generated::ScVal, raw_val::ConversionError>"], [0 x %"core::result::Result<stellar_xdr::next::generated::ScVal, raw_val::ConversionError>"]* %_21.i.i1.i.i1.i.i48, i64 0, i64 %_9.sroa.8.0.i, i32 0
  %34 = bitcast i8* %33 to %"core::result::Result<stellar_xdr::next::generated::ScVal, raw_val::ConversionError>"*
  %35 = tail call fastcc noundef zeroext i1 @"_ZN76_$LT$stellar_xdr..next..generated..ScVal$u20$as$u20$core..cmp..PartialEq$GT$2eq17hcf33e2e82326904bE"(%"core::result::Result<stellar_xdr::next::generated::ScVal, raw_val::ConversionError>"* noalias noundef nonnull readonly align 8 dereferenceable(40) %32, %"core::result::Result<stellar_xdr::next::generated::ScVal, raw_val::ConversionError>"* noalias noundef nonnull readonly align 8 dereferenceable(40) %34) #23, !noalias !1003
  br i1 %35, label %bb1.i.i, label %bb7.loopexit.i

bb7.loopexit.i:                                   ; preds = %bb3.i.i, %bb1.i.i
  %_9.sroa.8.0.lcssa.i = phi i64 [ %_9.sroa.8.0.i, %bb3.i.i ], [ %_4.i.i.i.i47, %bb1.i.i ]
  %_2.i.i.i.le.i = icmp uge i64 %_9.sroa.8.0.lcssa.i, %_4.i.i.i.i47
  br label %bb3

bb6.i.i:                                          ; preds = %bb2.i.i
  %36 = icmp eq i8 %1, 1
  tail call void @llvm.assume(i1 %36) #23
  tail call void @llvm.experimental.noalias.scope.decl(metadata !1009)
  tail call void @llvm.experimental.noalias.scope.decl(metadata !1012)
  tail call void @llvm.experimental.noalias.scope.decl(metadata !1014) #23
  tail call void @llvm.experimental.noalias.scope.decl(metadata !1017) #23
  %37 = getelementptr inbounds %"core::result::Result<stellar_xdr::next::generated::ScVal, raw_val::ConversionError>", %"core::result::Result<stellar_xdr::next::generated::ScVal, raw_val::ConversionError>"* %self, i64 0, i32 1, i64 15
  %38 = bitcast i8* %37 to [0 x %"stellar_xdr::next::generated::ScMapEntry"]**
  %_21.i.i1.i.i.i.i = load [0 x %"stellar_xdr::next::generated::ScMapEntry"]*, [0 x %"stellar_xdr::next::generated::ScMapEntry"]** %38, align 8, !alias.scope !1019, !noalias !1028, !nonnull !123
  %39 = getelementptr inbounds %"core::result::Result<stellar_xdr::next::generated::ScVal, raw_val::ConversionError>", %"core::result::Result<stellar_xdr::next::generated::ScVal, raw_val::ConversionError>"* %self, i64 0, i32 1, i64 23
  %40 = bitcast i8* %39 to i64*
  %_4.i.i.i.i = load i64, i64* %40, align 8, !alias.scope !1029, !noalias !1028
  %41 = getelementptr inbounds %"core::result::Result<stellar_xdr::next::generated::ScVal, raw_val::ConversionError>", %"core::result::Result<stellar_xdr::next::generated::ScVal, raw_val::ConversionError>"* %other, i64 0, i32 1, i64 15
  %42 = bitcast i8* %41 to [0 x %"stellar_xdr::next::generated::ScMapEntry"]**
  %_21.i.i1.i.i1.i.i = load [0 x %"stellar_xdr::next::generated::ScMapEntry"]*, [0 x %"stellar_xdr::next::generated::ScMapEntry"]** %42, align 8, !alias.scope !1030, !noalias !1039, !nonnull !123
  %43 = getelementptr inbounds %"core::result::Result<stellar_xdr::next::generated::ScVal, raw_val::ConversionError>", %"core::result::Result<stellar_xdr::next::generated::ScVal, raw_val::ConversionError>"* %other, i64 0, i32 1, i64 23
  %44 = bitcast i8* %43 to i64*
  %_4.i.i2.i.i = load i64, i64* %44, align 8, !alias.scope !1040, !noalias !1039
  %_3.not.i6 = icmp eq i64 %_4.i.i.i.i, %_4.i.i2.i.i
  br i1 %_3.not.i6, label %bb1.i.i9, label %bb3

bb1.i.i9:                                         ; preds = %"_ZN73_$LT$$u5b$A$u5d$$u20$as$u20$core..slice..cmp..SlicePartialEq$LT$B$GT$$GT$5equal28_$u7b$$u7b$closure$u7d$$u7d$17h1953facb1d04bf13E.exit.i", %bb6.i.i
  %_9.sroa.8.0.i7 = phi i64 [ %46, %"_ZN73_$LT$$u5b$A$u5d$$u20$as$u20$core..slice..cmp..SlicePartialEq$LT$B$GT$$GT$5equal28_$u7b$$u7b$closure$u7d$$u7d$17h1953facb1d04bf13E.exit.i" ], [ 0, %bb6.i.i ]
  %exitcond.not.i8 = icmp eq i64 %_9.sroa.8.0.i7, %_4.i.i.i.i
  br i1 %exitcond.not.i8, label %bb3, label %bb3.i.i10

bb3.i.i10:                                        ; preds = %bb1.i.i9
  %45 = getelementptr inbounds [0 x %"stellar_xdr::next::generated::ScMapEntry"], [0 x %"stellar_xdr::next::generated::ScMapEntry"]* %_21.i.i1.i.i1.i.i, i64 0, i64 %_9.sroa.8.0.i7, i32 0, i32 0
  %_4.i.i1.i = getelementptr inbounds [0 x %"stellar_xdr::next::generated::ScMapEntry"], [0 x %"stellar_xdr::next::generated::ScMapEntry"]* %_21.i.i1.i.i.i.i, i64 0, i64 %_9.sroa.8.0.i7, i32 0
  %_5.i1.i.i = bitcast i8* %45 to %"core::result::Result<stellar_xdr::next::generated::ScVal, raw_val::ConversionError>"*
  %_3.i.i.i = tail call fastcc noundef zeroext i1 @"_ZN76_$LT$stellar_xdr..next..generated..ScVal$u20$as$u20$core..cmp..PartialEq$GT$2eq17hcf33e2e82326904bE"(%"core::result::Result<stellar_xdr::next::generated::ScVal, raw_val::ConversionError>"* noalias noundef nonnull readonly align 8 dereferenceable(40) %_4.i.i1.i, %"core::result::Result<stellar_xdr::next::generated::ScVal, raw_val::ConversionError>"* noalias noundef nonnull readonly align 8 dereferenceable(40) %_5.i1.i.i) #23, !noalias !1041
  br i1 %_3.i.i.i, label %"_ZN73_$LT$$u5b$A$u5d$$u20$as$u20$core..slice..cmp..SlicePartialEq$LT$B$GT$$GT$5equal28_$u7b$$u7b$closure$u7d$$u7d$17h1953facb1d04bf13E.exit.i", label %bb3

"_ZN73_$LT$$u5b$A$u5d$$u20$as$u20$core..slice..cmp..SlicePartialEq$LT$B$GT$$GT$5equal28_$u7b$$u7b$closure$u7d$$u7d$17h1953facb1d04bf13E.exit.i": ; preds = %bb3.i.i10
  %46 = add i64 %_9.sroa.8.0.i7, 1
  %_7.i.i.i = getelementptr inbounds [0 x %"stellar_xdr::next::generated::ScMapEntry"], [0 x %"stellar_xdr::next::generated::ScMapEntry"]* %_21.i.i1.i.i.i.i, i64 0, i64 %_9.sroa.8.0.i7, i32 1
  %_8.i.i.i = getelementptr inbounds i8, i8* %45, i64 40
  %47 = bitcast i8* %_8.i.i.i to %"core::result::Result<stellar_xdr::next::generated::ScVal, raw_val::ConversionError>"*
  %_6.i2.i.i = tail call fastcc noundef zeroext i1 @"_ZN76_$LT$stellar_xdr..next..generated..ScVal$u20$as$u20$core..cmp..PartialEq$GT$2eq17hcf33e2e82326904bE"(%"core::result::Result<stellar_xdr::next::generated::ScVal, raw_val::ConversionError>"* noalias noundef nonnull readonly align 8 dereferenceable(40) %_7.i.i.i, %"core::result::Result<stellar_xdr::next::generated::ScVal, raw_val::ConversionError>"* noalias noundef nonnull readonly align 8 dereferenceable(40) %47) #23, !noalias !1041
  br i1 %_6.i2.i.i, label %bb1.i.i9, label %bb3

bb7.i.i:                                          ; preds = %bb2.i.i
  %48 = icmp eq i8 %1, 2
  tail call void @llvm.assume(i1 %48) #23
  %49 = getelementptr inbounds %"core::result::Result<stellar_xdr::next::generated::ScVal, raw_val::ConversionError>", %"core::result::Result<stellar_xdr::next::generated::ScVal, raw_val::ConversionError>"* %self, i64 0, i32 1, i64 7
  %50 = bitcast i8* %49 to i64*
  %51 = getelementptr inbounds %"core::result::Result<stellar_xdr::next::generated::ScVal, raw_val::ConversionError>", %"core::result::Result<stellar_xdr::next::generated::ScVal, raw_val::ConversionError>"* %other, i64 0, i32 1, i64 7
  %52 = bitcast i8* %51 to i64*
  %_35.i.i = load i64, i64* %50, align 8, !alias.scope !1047, !noalias !1048
  %_36.i.i = load i64, i64* %52, align 8, !alias.scope !1048, !noalias !1047
  %53 = icmp eq i64 %_35.i.i, %_36.i.i
  br label %bb3

bb8.i.i:                                          ; preds = %bb2.i.i
  %54 = icmp eq i8 %1, 3
  tail call void @llvm.assume(i1 %54) #23
  %55 = getelementptr inbounds %"core::result::Result<stellar_xdr::next::generated::ScVal, raw_val::ConversionError>", %"core::result::Result<stellar_xdr::next::generated::ScVal, raw_val::ConversionError>"* %self, i64 0, i32 1, i64 7
  %56 = bitcast i8* %55 to i64*
  %57 = getelementptr inbounds %"core::result::Result<stellar_xdr::next::generated::ScVal, raw_val::ConversionError>", %"core::result::Result<stellar_xdr::next::generated::ScVal, raw_val::ConversionError>"* %other, i64 0, i32 1, i64 7
  %58 = bitcast i8* %57 to i64*
  %_39.i.i = load i64, i64* %56, align 8, !alias.scope !1047, !noalias !1048
  %_40.i.i = load i64, i64* %58, align 8, !alias.scope !1048, !noalias !1047
  %59 = icmp eq i64 %_39.i.i, %_40.i.i
  br label %bb3

bb9.i.i:                                          ; preds = %bb2.i.i
  %60 = icmp eq i8 %1, 4
  tail call void @llvm.assume(i1 %60) #23
  %61 = getelementptr inbounds %"core::result::Result<stellar_xdr::next::generated::ScVal, raw_val::ConversionError>", %"core::result::Result<stellar_xdr::next::generated::ScVal, raw_val::ConversionError>"* %self, i64 0, i32 1, i64 7
  %62 = getelementptr inbounds %"core::result::Result<stellar_xdr::next::generated::ScVal, raw_val::ConversionError>", %"core::result::Result<stellar_xdr::next::generated::ScVal, raw_val::ConversionError>"* %other, i64 0, i32 1, i64 7
  tail call void @llvm.experimental.noalias.scope.decl(metadata !1049)
  tail call void @llvm.experimental.noalias.scope.decl(metadata !1052)
  %63 = bitcast i8* %61 to i64*
  %_4.i33 = load i64, i64* %63, align 8, !alias.scope !1049, !noalias !1052
  %64 = bitcast i8* %62 to i64*
  %_5.i34 = load i64, i64* %64, align 8, !alias.scope !1052, !noalias !1049
  %_3.i35 = icmp eq i64 %_4.i33, %_5.i34
  %65 = getelementptr inbounds %"core::result::Result<stellar_xdr::next::generated::ScVal, raw_val::ConversionError>", %"core::result::Result<stellar_xdr::next::generated::ScVal, raw_val::ConversionError>"* %self, i64 0, i32 1, i64 15
  %66 = bitcast i8* %65 to i64*
  %_7.i36 = load i64, i64* %66, align 8, !alias.scope !1049, !noalias !1052
  %67 = getelementptr inbounds %"core::result::Result<stellar_xdr::next::generated::ScVal, raw_val::ConversionError>", %"core::result::Result<stellar_xdr::next::generated::ScVal, raw_val::ConversionError>"* %other, i64 0, i32 1, i64 15
  %68 = bitcast i8* %67 to i64*
  %_8.i37 = load i64, i64* %68, align 8, !alias.scope !1052, !noalias !1049
  %_6.i38 = icmp eq i64 %_7.i36, %_8.i37
  %.0.i39 = select i1 %_3.i35, i1 %_6.i38, i1 false
  br label %bb3

bb10.i.i:                                         ; preds = %bb2.i.i
  %69 = icmp eq i8 %1, 5
  tail call void @llvm.assume(i1 %69) #23
  %70 = getelementptr inbounds %"core::result::Result<stellar_xdr::next::generated::ScVal, raw_val::ConversionError>", %"core::result::Result<stellar_xdr::next::generated::ScVal, raw_val::ConversionError>"* %self, i64 0, i32 1, i64 7
  %71 = getelementptr inbounds %"core::result::Result<stellar_xdr::next::generated::ScVal, raw_val::ConversionError>", %"core::result::Result<stellar_xdr::next::generated::ScVal, raw_val::ConversionError>"* %other, i64 0, i32 1, i64 7
  tail call void @llvm.experimental.noalias.scope.decl(metadata !1054)
  tail call void @llvm.experimental.noalias.scope.decl(metadata !1057)
  %72 = bitcast i8* %70 to i64*
  %_4.i29 = load i64, i64* %72, align 8, !alias.scope !1054, !noalias !1057
  %73 = bitcast i8* %71 to i64*
  %_5.i = load i64, i64* %73, align 8, !alias.scope !1057, !noalias !1054
  %_3.i30 = icmp eq i64 %_4.i29, %_5.i
  %74 = getelementptr inbounds %"core::result::Result<stellar_xdr::next::generated::ScVal, raw_val::ConversionError>", %"core::result::Result<stellar_xdr::next::generated::ScVal, raw_val::ConversionError>"* %self, i64 0, i32 1, i64 15
  %75 = bitcast i8* %74 to i64*
  %_7.i31 = load i64, i64* %75, align 8, !alias.scope !1054, !noalias !1057
  %76 = getelementptr inbounds %"core::result::Result<stellar_xdr::next::generated::ScVal, raw_val::ConversionError>", %"core::result::Result<stellar_xdr::next::generated::ScVal, raw_val::ConversionError>"* %other, i64 0, i32 1, i64 15
  %77 = bitcast i8* %76 to i64*
  %_8.i = load i64, i64* %77, align 8, !alias.scope !1057, !noalias !1054
  %_6.i = icmp eq i64 %_7.i31, %_8.i
  %.0.i32 = select i1 %_3.i30, i1 %_6.i, i1 false
  br label %bb3

bb11.i.i:                                         ; preds = %bb2.i.i
  %78 = icmp eq i8 %1, 6
  tail call void @llvm.assume(i1 %78) #23
  %79 = getelementptr inbounds %"core::result::Result<stellar_xdr::next::generated::ScVal, raw_val::ConversionError>", %"core::result::Result<stellar_xdr::next::generated::ScVal, raw_val::ConversionError>"* %self, i64 0, i32 1, i64 7
  %80 = getelementptr inbounds %"core::result::Result<stellar_xdr::next::generated::ScVal, raw_val::ConversionError>", %"core::result::Result<stellar_xdr::next::generated::ScVal, raw_val::ConversionError>"* %other, i64 0, i32 1, i64 7
  %_3.i27 = bitcast i8* %79 to %"vec::Vec<u8>"*
  %_4.i28 = bitcast i8* %80 to %"vec::Vec<u8>"*
  %81 = tail call fastcc noundef zeroext i1 @"_ZN5alloc3vec10partial_eq117_$LT$impl$u20$core..cmp..PartialEq$LT$alloc..vec..Vec$LT$U$C$A2$GT$$GT$$u20$for$u20$alloc..vec..Vec$LT$T$C$A1$GT$$GT$2eq17hd10ab0aba3870f55E"(%"vec::Vec<u8>"* noalias noundef nonnull readonly align 8 dereferenceable(24) %_3.i27, %"vec::Vec<u8>"* noalias noundef nonnull readonly align 8 dereferenceable(24) %_4.i28) #23
  br label %bb3

bb12.i.i:                                         ; preds = %bb2.i.i
  %82 = icmp eq i8 %1, 7
  tail call void @llvm.assume(i1 %82) #23
  tail call void @llvm.experimental.noalias.scope.decl(metadata !1059)
  tail call void @llvm.experimental.noalias.scope.decl(metadata !1062)
  %83 = getelementptr inbounds %"core::result::Result<stellar_xdr::next::generated::ScVal, raw_val::ConversionError>", %"core::result::Result<stellar_xdr::next::generated::ScVal, raw_val::ConversionError>"* %self, i64 0, i32 1, i64 0
  %84 = load i8, i8* %83, align 1, !range !1064, !alias.scope !1059, !noalias !1062, !noundef !123
  %85 = getelementptr inbounds %"core::result::Result<stellar_xdr::next::generated::ScVal, raw_val::ConversionError>", %"core::result::Result<stellar_xdr::next::generated::ScVal, raw_val::ConversionError>"* %other, i64 0, i32 1, i64 0
  %86 = load i8, i8* %85, align 1, !range !1064, !alias.scope !1062, !noalias !1059, !noundef !123
  %_7.i22 = icmp eq i8 %84, %86
  br i1 %_7.i22, label %bb2.i23, label %bb3

bb2.i23:                                          ; preds = %bb12.i.i
  %87 = icmp eq i8 %84, 0
  br i1 %87, label %bb6.i24, label %bb3

bb6.i24:                                          ; preds = %bb2.i23
  %__self_0.i = getelementptr inbounds %"core::result::Result<stellar_xdr::next::generated::ScVal, raw_val::ConversionError>", %"core::result::Result<stellar_xdr::next::generated::ScVal, raw_val::ConversionError>"* %self, i64 0, i32 1, i64 1
  %88 = bitcast i8* %__self_0.i to [32 x i8]*
  %__arg1_0.i = getelementptr inbounds %"core::result::Result<stellar_xdr::next::generated::ScVal, raw_val::ConversionError>", %"core::result::Result<stellar_xdr::next::generated::ScVal, raw_val::ConversionError>"* %other, i64 0, i32 1, i64 1
  %89 = bitcast i8* %__arg1_0.i to [32 x i8]*
  %90 = tail call fastcc noundef zeroext i1 @"_ZN69_$LT$T$u20$as$u20$core..array..equality..SpecArrayEq$LT$U$C$_$GT$$GT$7spec_eq17h91a54cc801c80e80E"([32 x i8]* noalias noundef nonnull readonly align 1 dereferenceable(32) %88, [32 x i8]* noalias noundef nonnull readonly align 1 dereferenceable(32) %89) #23
  br label %bb3

bb13.i.i:                                         ; preds = %bb2.i.i
  %91 = icmp eq i8 %1, 8
  tail call void @llvm.assume(i1 %91) #23
  %92 = getelementptr inbounds %"core::result::Result<stellar_xdr::next::generated::ScVal, raw_val::ConversionError>", %"core::result::Result<stellar_xdr::next::generated::ScVal, raw_val::ConversionError>"* %self, i64 0, i32 1
  %93 = bitcast [39 x i8]* %92 to %"stellar_xdr::next::generated::ScAddress"*
  %94 = getelementptr inbounds %"core::result::Result<stellar_xdr::next::generated::ScVal, raw_val::ConversionError>", %"core::result::Result<stellar_xdr::next::generated::ScVal, raw_val::ConversionError>"* %other, i64 0, i32 1
  %95 = bitcast [39 x i8]* %94 to %"stellar_xdr::next::generated::ScAddress"*
  %96 = tail call fastcc noundef zeroext i1 @"_ZN80_$LT$stellar_xdr..next..generated..ScAddress$u20$as$u20$core..cmp..PartialEq$GT$2eq17h43636879d0eb9b27E"(%"stellar_xdr::next::generated::ScAddress"* noalias noundef nonnull readonly align 1 dereferenceable(33) %93, %"stellar_xdr::next::generated::ScAddress"* noalias noundef nonnull readonly align 1 dereferenceable(33) %95) #23
  br label %bb3

bb14.i.i:                                         ; preds = %bb2.i.i
  %97 = icmp eq i8 %1, 9
  tail call void @llvm.assume(i1 %97) #23
  %98 = getelementptr inbounds %"core::result::Result<stellar_xdr::next::generated::ScVal, raw_val::ConversionError>", %"core::result::Result<stellar_xdr::next::generated::ScVal, raw_val::ConversionError>"* %self, i64 0, i32 1
  %99 = bitcast [39 x i8]* %98 to %"stellar_xdr::next::generated::ScAddress"*
  %100 = getelementptr inbounds %"core::result::Result<stellar_xdr::next::generated::ScVal, raw_val::ConversionError>", %"core::result::Result<stellar_xdr::next::generated::ScVal, raw_val::ConversionError>"* %other, i64 0, i32 1
  %101 = bitcast [39 x i8]* %100 to %"stellar_xdr::next::generated::ScAddress"*
  %102 = tail call fastcc noundef zeroext i1 @"_ZN80_$LT$stellar_xdr..next..generated..ScAddress$u20$as$u20$core..cmp..PartialEq$GT$2eq17h43636879d0eb9b27E"(%"stellar_xdr::next::generated::ScAddress"* noalias noundef nonnull readonly align 1 dereferenceable(33) %99, %"stellar_xdr::next::generated::ScAddress"* noalias noundef nonnull readonly align 1 dereferenceable(33) %101) #23
  br label %bb3

bb10:                                             ; preds = %bb2
  %__self_03 = getelementptr inbounds %"core::result::Result<stellar_xdr::next::generated::ScVal, raw_val::ConversionError>", %"core::result::Result<stellar_xdr::next::generated::ScVal, raw_val::ConversionError>"* %self, i64 0, i32 1, i64 7
  %__arg1_04 = getelementptr inbounds %"core::result::Result<stellar_xdr::next::generated::ScVal, raw_val::ConversionError>", %"core::result::Result<stellar_xdr::next::generated::ScVal, raw_val::ConversionError>"* %other, i64 0, i32 1, i64 7
  %_3.i = bitcast i8* %__self_03 to %"vec::Vec<u8>"*
  %_4.i = bitcast i8* %__arg1_04 to %"vec::Vec<u8>"*
  %103 = tail call fastcc noundef zeroext i1 @"_ZN5alloc3vec10partial_eq117_$LT$impl$u20$core..cmp..PartialEq$LT$alloc..vec..Vec$LT$U$C$A2$GT$$GT$$u20$for$u20$alloc..vec..Vec$LT$T$C$A1$GT$$GT$2eq17hd10ab0aba3870f55E"(%"vec::Vec<u8>"* noalias noundef nonnull readonly align 8 dereferenceable(24) %_3.i, %"vec::Vec<u8>"* noalias noundef nonnull readonly align 8 dereferenceable(24) %_4.i) #23
  br label %bb3

bb11:                                             ; preds = %bb2
  %__self_01 = getelementptr inbounds %"core::result::Result<stellar_xdr::next::generated::ScVal, raw_val::ConversionError>", %"core::result::Result<stellar_xdr::next::generated::ScVal, raw_val::ConversionError>"* %self, i64 0, i32 1, i64 7
  %104 = bitcast i8* %__self_01 to i64*
  %__arg1_02 = getelementptr inbounds %"core::result::Result<stellar_xdr::next::generated::ScVal, raw_val::ConversionError>", %"core::result::Result<stellar_xdr::next::generated::ScVal, raw_val::ConversionError>"* %other, i64 0, i32 1, i64 7
  %105 = bitcast i8* %__arg1_02 to i64*
  %_49 = load i64, i64* %104, align 8
  %_50 = load i64, i64* %105, align 8
  %106 = icmp eq i64 %_49, %_50
  br label %bb3

bb12:                                             ; preds = %bb2
  %__self_0 = getelementptr inbounds %"core::result::Result<stellar_xdr::next::generated::ScVal, raw_val::ConversionError>", %"core::result::Result<stellar_xdr::next::generated::ScVal, raw_val::ConversionError>"* %self, i64 0, i32 1, i64 3
  %__arg1_0 = getelementptr inbounds %"core::result::Result<stellar_xdr::next::generated::ScVal, raw_val::ConversionError>", %"core::result::Result<stellar_xdr::next::generated::ScVal, raw_val::ConversionError>"* %other, i64 0, i32 1, i64 3
  tail call void @llvm.experimental.noalias.scope.decl(metadata !1065)
  tail call void @llvm.experimental.noalias.scope.decl(metadata !1068)
  %107 = bitcast i8* %__self_0 to i32*
  %108 = load i32, i32* %107, align 4, !range !1070, !alias.scope !1065, !noalias !1068, !noundef !123
  %109 = bitcast i8* %__arg1_0 to i32*
  %110 = load i32, i32* %109, align 4, !range !1070, !alias.scope !1068, !noalias !1065, !noundef !123
  %_7.i = icmp eq i32 %108, %110
  br i1 %_7.i, label %bb2.i, label %bb3

bb2.i:                                            ; preds = %bb12
  %__self_tag.i18 = zext i32 %108 to i64
  switch i64 %__self_tag.i18, label %bb3 [
    i64 1, label %bb5.i
    i64 2, label %bb6.i
    i64 3, label %bb7.i
    i64 4, label %bb8.i
    i64 5, label %bb9.i
    i64 6, label %bb10.i
    i64 7, label %bb11.i
    i64 8, label %bb12.i
    i64 9, label %bb13.i
  ]

bb5.i:                                            ; preds = %bb2.i
  %111 = icmp eq i32 %108, 1
  br i1 %111, label %bb14.i, label %bb3

bb6.i:                                            ; preds = %bb2.i
  %112 = icmp eq i32 %108, 2
  br i1 %112, label %bb16.i, label %bb3

bb7.i:                                            ; preds = %bb2.i
  %113 = icmp eq i32 %108, 3
  br i1 %113, label %bb18.i, label %bb3

bb8.i:                                            ; preds = %bb2.i
  %114 = icmp eq i32 %108, 4
  br i1 %114, label %bb20.i, label %bb3

bb9.i:                                            ; preds = %bb2.i
  %115 = icmp eq i32 %108, 5
  br i1 %115, label %bb22.i, label %bb3

bb10.i:                                           ; preds = %bb2.i
  %116 = icmp eq i32 %108, 6
  br i1 %116, label %bb24.i, label %bb3

bb11.i:                                           ; preds = %bb2.i
  %117 = icmp eq i32 %108, 7
  br i1 %117, label %bb26.i, label %bb3

bb12.i:                                           ; preds = %bb2.i
  %118 = icmp eq i32 %108, 8
  br i1 %118, label %bb28.i, label %bb3

bb13.i:                                           ; preds = %bb2.i
  %119 = icmp eq i32 %108, 9
  br i1 %119, label %bb29.i, label %bb3

bb29.i:                                           ; preds = %bb13.i
  %120 = getelementptr inbounds %"core::result::Result<stellar_xdr::next::generated::ScVal, raw_val::ConversionError>", %"core::result::Result<stellar_xdr::next::generated::ScVal, raw_val::ConversionError>"* %self, i64 0, i32 1, i64 7
  %121 = bitcast i8* %120 to i32*
  %122 = getelementptr inbounds %"core::result::Result<stellar_xdr::next::generated::ScVal, raw_val::ConversionError>", %"core::result::Result<stellar_xdr::next::generated::ScVal, raw_val::ConversionError>"* %other, i64 0, i32 1, i64 7
  %123 = bitcast i8* %122 to i32*
  tail call void @llvm.experimental.noalias.scope.decl(metadata !1071) #23
  tail call void @llvm.experimental.noalias.scope.decl(metadata !1074) #23
  %__self_tag.i.i = load i32, i32* %121, align 8, !range !960, !alias.scope !1076, !noalias !1077, !noundef !123
  %__arg1_tag.i.i = load i32, i32* %123, align 8, !range !960, !alias.scope !1077, !noalias !1076, !noundef !123
  %124 = icmp eq i32 %__self_tag.i.i, %__arg1_tag.i.i
  br label %bb3

bb28.i:                                           ; preds = %bb12.i
  %125 = getelementptr inbounds %"core::result::Result<stellar_xdr::next::generated::ScVal, raw_val::ConversionError>", %"core::result::Result<stellar_xdr::next::generated::ScVal, raw_val::ConversionError>"* %self, i64 0, i32 1, i64 7
  %126 = bitcast i8* %125 to i32*
  %127 = getelementptr inbounds %"core::result::Result<stellar_xdr::next::generated::ScVal, raw_val::ConversionError>", %"core::result::Result<stellar_xdr::next::generated::ScVal, raw_val::ConversionError>"* %other, i64 0, i32 1, i64 7
  %128 = bitcast i8* %127 to i32*
  %_54.i = load i32, i32* %126, align 8, !alias.scope !1065, !noalias !1068
  %_55.i = load i32, i32* %128, align 8, !alias.scope !1068, !noalias !1065
  %129 = icmp eq i32 %_54.i, %_55.i
  br label %bb3

bb26.i:                                           ; preds = %bb11.i
  %130 = getelementptr inbounds %"core::result::Result<stellar_xdr::next::generated::ScVal, raw_val::ConversionError>", %"core::result::Result<stellar_xdr::next::generated::ScVal, raw_val::ConversionError>"* %self, i64 0, i32 1, i64 7
  %131 = bitcast i8* %130 to i32*
  %132 = getelementptr inbounds %"core::result::Result<stellar_xdr::next::generated::ScVal, raw_val::ConversionError>", %"core::result::Result<stellar_xdr::next::generated::ScVal, raw_val::ConversionError>"* %other, i64 0, i32 1, i64 7
  %133 = bitcast i8* %132 to i32*
  tail call void @llvm.experimental.noalias.scope.decl(metadata !1078) #23
  tail call void @llvm.experimental.noalias.scope.decl(metadata !1081) #23
  %__self_tag.i19.i = load i32, i32* %131, align 8, !range !1083, !alias.scope !1084, !noalias !1085, !noundef !123
  %__arg1_tag.i20.i = load i32, i32* %133, align 8, !range !1083, !alias.scope !1085, !noalias !1084, !noundef !123
  %134 = icmp eq i32 %__self_tag.i19.i, %__arg1_tag.i20.i
  br label %bb3

bb24.i:                                           ; preds = %bb10.i
  %135 = getelementptr inbounds %"core::result::Result<stellar_xdr::next::generated::ScVal, raw_val::ConversionError>", %"core::result::Result<stellar_xdr::next::generated::ScVal, raw_val::ConversionError>"* %self, i64 0, i32 1, i64 7
  %136 = bitcast i8* %135 to i32*
  %137 = getelementptr inbounds %"core::result::Result<stellar_xdr::next::generated::ScVal, raw_val::ConversionError>", %"core::result::Result<stellar_xdr::next::generated::ScVal, raw_val::ConversionError>"* %other, i64 0, i32 1, i64 7
  %138 = bitcast i8* %137 to i32*
  tail call void @llvm.experimental.noalias.scope.decl(metadata !1086) #23
  tail call void @llvm.experimental.noalias.scope.decl(metadata !1089) #23
  %__self_tag.i21.i = load i32, i32* %136, align 8, !range !1091, !alias.scope !1092, !noalias !1093, !noundef !123
  %__arg1_tag.i22.i = load i32, i32* %138, align 8, !range !1091, !alias.scope !1093, !noalias !1092, !noundef !123
  %139 = icmp eq i32 %__self_tag.i21.i, %__arg1_tag.i22.i
  br label %bb3

bb22.i:                                           ; preds = %bb9.i
  %140 = getelementptr inbounds %"core::result::Result<stellar_xdr::next::generated::ScVal, raw_val::ConversionError>", %"core::result::Result<stellar_xdr::next::generated::ScVal, raw_val::ConversionError>"* %self, i64 0, i32 1, i64 7
  %141 = bitcast i8* %140 to i32*
  %142 = getelementptr inbounds %"core::result::Result<stellar_xdr::next::generated::ScVal, raw_val::ConversionError>", %"core::result::Result<stellar_xdr::next::generated::ScVal, raw_val::ConversionError>"* %other, i64 0, i32 1, i64 7
  %143 = bitcast i8* %142 to i32*
  tail call void @llvm.experimental.noalias.scope.decl(metadata !1094) #23
  tail call void @llvm.experimental.noalias.scope.decl(metadata !1097) #23
  %__self_tag.i23.i = load i32, i32* %141, align 8, !range !1099, !alias.scope !1100, !noalias !1101, !noundef !123
  %__arg1_tag.i24.i = load i32, i32* %143, align 8, !range !1099, !alias.scope !1101, !noalias !1100, !noundef !123
  %144 = icmp eq i32 %__self_tag.i23.i, %__arg1_tag.i24.i
  br label %bb3

bb20.i:                                           ; preds = %bb8.i
  %145 = getelementptr inbounds %"core::result::Result<stellar_xdr::next::generated::ScVal, raw_val::ConversionError>", %"core::result::Result<stellar_xdr::next::generated::ScVal, raw_val::ConversionError>"* %self, i64 0, i32 1, i64 7
  %146 = bitcast i8* %145 to i32*
  %147 = getelementptr inbounds %"core::result::Result<stellar_xdr::next::generated::ScVal, raw_val::ConversionError>", %"core::result::Result<stellar_xdr::next::generated::ScVal, raw_val::ConversionError>"* %other, i64 0, i32 1, i64 7
  %148 = bitcast i8* %147 to i32*
  tail call void @llvm.experimental.noalias.scope.decl(metadata !1102) #23
  tail call void @llvm.experimental.noalias.scope.decl(metadata !1105) #23
  %__self_tag.i25.i = load i32, i32* %146, align 8, !range !1107, !alias.scope !1108, !noalias !1109, !noundef !123
  %__arg1_tag.i26.i = load i32, i32* %148, align 8, !range !1107, !alias.scope !1109, !noalias !1108, !noundef !123
  %149 = icmp eq i32 %__self_tag.i25.i, %__arg1_tag.i26.i
  br label %bb3

bb18.i:                                           ; preds = %bb7.i
  %150 = getelementptr inbounds %"core::result::Result<stellar_xdr::next::generated::ScVal, raw_val::ConversionError>", %"core::result::Result<stellar_xdr::next::generated::ScVal, raw_val::ConversionError>"* %self, i64 0, i32 1, i64 7
  %151 = bitcast i8* %150 to i32*
  %152 = getelementptr inbounds %"core::result::Result<stellar_xdr::next::generated::ScVal, raw_val::ConversionError>", %"core::result::Result<stellar_xdr::next::generated::ScVal, raw_val::ConversionError>"* %other, i64 0, i32 1, i64 7
  %153 = bitcast i8* %152 to i32*
  tail call void @llvm.experimental.noalias.scope.decl(metadata !1110) #23
  tail call void @llvm.experimental.noalias.scope.decl(metadata !1113) #23
  %__self_tag.i27.i = load i32, i32* %151, align 8, !range !1115, !alias.scope !1116, !noalias !1117, !noundef !123
  %__arg1_tag.i28.i = load i32, i32* %153, align 8, !range !1115, !alias.scope !1117, !noalias !1116, !noundef !123
  %154 = icmp eq i32 %__self_tag.i27.i, %__arg1_tag.i28.i
  br label %bb3

bb16.i:                                           ; preds = %bb6.i
  %155 = getelementptr inbounds %"core::result::Result<stellar_xdr::next::generated::ScVal, raw_val::ConversionError>", %"core::result::Result<stellar_xdr::next::generated::ScVal, raw_val::ConversionError>"* %self, i64 0, i32 1, i64 7
  %156 = bitcast i8* %155 to i32*
  %157 = getelementptr inbounds %"core::result::Result<stellar_xdr::next::generated::ScVal, raw_val::ConversionError>", %"core::result::Result<stellar_xdr::next::generated::ScVal, raw_val::ConversionError>"* %other, i64 0, i32 1, i64 7
  %158 = bitcast i8* %157 to i32*
  tail call void @llvm.experimental.noalias.scope.decl(metadata !1118) #23
  tail call void @llvm.experimental.noalias.scope.decl(metadata !1121) #23
  %__self_tag.i29.i = load i32, i32* %156, align 8, !range !1123, !alias.scope !1124, !noalias !1125, !noundef !123
  %__arg1_tag.i30.i = load i32, i32* %158, align 8, !range !1123, !alias.scope !1125, !noalias !1124, !noundef !123
  %159 = icmp eq i32 %__self_tag.i29.i, %__arg1_tag.i30.i
  br label %bb3

bb14.i:                                           ; preds = %bb5.i
  %160 = getelementptr inbounds %"core::result::Result<stellar_xdr::next::generated::ScVal, raw_val::ConversionError>", %"core::result::Result<stellar_xdr::next::generated::ScVal, raw_val::ConversionError>"* %self, i64 0, i32 1, i64 7
  %161 = bitcast i8* %160 to i32*
  %162 = getelementptr inbounds %"core::result::Result<stellar_xdr::next::generated::ScVal, raw_val::ConversionError>", %"core::result::Result<stellar_xdr::next::generated::ScVal, raw_val::ConversionError>"* %other, i64 0, i32 1, i64 7
  %163 = bitcast i8* %162 to i32*
  tail call void @llvm.experimental.noalias.scope.decl(metadata !1126) #23
  tail call void @llvm.experimental.noalias.scope.decl(metadata !1129) #23
  %__self_tag.i31.i = load i32, i32* %161, align 8, !range !1091, !alias.scope !1131, !noalias !1132, !noundef !123
  %__arg1_tag.i32.i = load i32, i32* %163, align 8, !range !1091, !alias.scope !1132, !noalias !1131, !noundef !123
  %164 = icmp eq i32 %__self_tag.i31.i, %__arg1_tag.i32.i
  br label %bb3

bb3:                                              ; preds = %bb14.i, %bb16.i, %bb18.i, %bb20.i, %bb22.i, %bb24.i, %bb26.i, %bb28.i, %bb29.i, %bb13.i, %bb12.i, %bb11.i, %bb10.i, %bb9.i, %bb8.i, %bb7.i, %bb6.i, %bb5.i, %bb2.i, %bb12, %bb11, %bb10, %bb14.i.i, %bb13.i.i, %bb6.i24, %bb2.i23, %bb12.i.i, %bb11.i.i, %bb10.i.i, %bb9.i.i, %bb8.i.i, %bb7.i.i, %"_ZN73_$LT$$u5b$A$u5d$$u20$as$u20$core..slice..cmp..SlicePartialEq$LT$B$GT$$GT$5equal28_$u7b$$u7b$closure$u7d$$u7d$17h1953facb1d04bf13E.exit.i", %bb3.i.i10, %bb1.i.i9, %bb6.i.i, %bb7.loopexit.i, %bb4.i.i, %bb4.i, %bb9, %bb8, %bb7, %bb6, %bb4, %start
  %.0 = phi i1 [ false, %start ], [ %106, %bb11 ], [ %103, %bb10 ], [ %19, %bb8 ], [ %16, %bb7 ], [ %13, %bb6 ], [ %10, %bb4 ], [ false, %bb4.i ], [ %102, %bb14.i.i ], [ %96, %bb13.i.i ], [ %81, %bb11.i.i ], [ %.0.i32, %bb10.i.i ], [ %.0.i39, %bb9.i.i ], [ %59, %bb8.i.i ], [ %53, %bb7.i.i ], [ false, %bb12.i.i ], [ %90, %bb6.i24 ], [ true, %bb2.i23 ], [ false, %bb12 ], [ %124, %bb29.i ], [ %129, %bb28.i ], [ %134, %bb26.i ], [ %139, %bb24.i ], [ %144, %bb22.i ], [ %149, %bb20.i ], [ %154, %bb18.i ], [ %159, %bb16.i ], [ %164, %bb14.i ], [ true, %bb5.i ], [ true, %bb6.i ], [ true, %bb7.i ], [ true, %bb8.i ], [ true, %bb9.i ], [ true, %bb10.i ], [ true, %bb11.i ], [ true, %bb12.i ], [ true, %bb13.i ], [ true, %bb2.i ], [ %.mux, %bb9 ], [ false, %bb4.i.i ], [ %_2.i.i.i.le.i, %bb7.loopexit.i ], [ false, %bb6.i.i ], [ false, %bb3.i.i10 ], [ false, %"_ZN73_$LT$$u5b$A$u5d$$u20$as$u20$core..slice..cmp..SlicePartialEq$LT$B$GT$$GT$5equal28_$u7b$$u7b$closure$u7d$$u7d$17h1953facb1d04bf13E.exit.i" ], [ true, %bb1.i.i9 ]
  ret i1 %.0
}

; Function Attrs: inlinehint minsize nounwind nonlazybind optsize
define internal fastcc void @"_ZN74_$LT$stellar_xdr..next..generated..ScVal$u20$as$u20$core..clone..Clone$GT$5clone17he405b7f8dc390159E"(%"core::result::Result<stellar_xdr::next::generated::ScVal, raw_val::ConversionError>"* noalias nocapture noundef writeonly dereferenceable(40) %0, %"core::result::Result<stellar_xdr::next::generated::ScVal, raw_val::ConversionError>"* noalias noundef readonly align 8 dereferenceable(40) %self) unnamed_addr #6 {
start:
  %_25.sroa.4.i.sroa.0.i = alloca [6 x i8], align 1
  %_22.i.i = alloca %"string::String", align 8
  %_7.i.i = alloca %"soroban_env_verification::storage::Storage", align 8
  %_4.i.i = alloca %"soroban_env_verification::storage::Storage", align 8
  %_4.sroa.16.i = alloca [6 x i8], align 2
  %_19 = alloca %"string::String", align 8
  %_16.sroa.6 = alloca [6 x i8], align 2
  %1 = getelementptr inbounds %"core::result::Result<stellar_xdr::next::generated::ScVal, raw_val::ConversionError>", %"core::result::Result<stellar_xdr::next::generated::ScVal, raw_val::ConversionError>"* %self, i64 0, i32 0
  %2 = load i8, i8* %1, align 8, !range !552, !noundef !123
  %3 = icmp ugt i8 %2, 10
  %4 = add nsw i8 %2, -11
  %narrow = select i1 %3, i8 %4, i8 4
  switch i8 %narrow, label %bb2 [
    i8 0, label %bb3
    i8 1, label %bb4
    i8 2, label %bb5
    i8 3, label %bb6
    i8 4, label %bb8
    i8 5, label %bb10
    i8 6, label %bb12
    i8 7, label %bb1
  ]

bb2:                                              ; preds = %start
  unreachable

bb3:                                              ; preds = %start
  %__self_07 = getelementptr inbounds %"core::result::Result<stellar_xdr::next::generated::ScVal, raw_val::ConversionError>", %"core::result::Result<stellar_xdr::next::generated::ScVal, raw_val::ConversionError>"* %self, i64 0, i32 1, i64 7
  %5 = bitcast i8* %__self_07 to i64*
  %_4 = load i64, i64* %5, align 8
  %6 = getelementptr inbounds %"core::result::Result<stellar_xdr::next::generated::ScVal, raw_val::ConversionError>", %"core::result::Result<stellar_xdr::next::generated::ScVal, raw_val::ConversionError>"* %0, i64 0, i32 1, i64 7
  %7 = bitcast i8* %6 to i64*
  store i64 %_4, i64* %7, align 8
  %8 = getelementptr inbounds %"core::result::Result<stellar_xdr::next::generated::ScVal, raw_val::ConversionError>", %"core::result::Result<stellar_xdr::next::generated::ScVal, raw_val::ConversionError>"* %0, i64 0, i32 0
  store i8 11, i8* %8, align 8
  br label %bb14

bb4:                                              ; preds = %start
  %__self_06 = getelementptr inbounds %"core::result::Result<stellar_xdr::next::generated::ScVal, raw_val::ConversionError>", %"core::result::Result<stellar_xdr::next::generated::ScVal, raw_val::ConversionError>"* %self, i64 0, i32 1, i64 3
  %9 = bitcast i8* %__self_06 to i32*
  %_7 = load i32, i32* %9, align 4
  %10 = getelementptr inbounds %"core::result::Result<stellar_xdr::next::generated::ScVal, raw_val::ConversionError>", %"core::result::Result<stellar_xdr::next::generated::ScVal, raw_val::ConversionError>"* %0, i64 0, i32 1, i64 3
  %11 = bitcast i8* %10 to i32*
  store i32 %_7, i32* %11, align 4
  %12 = getelementptr inbounds %"core::result::Result<stellar_xdr::next::generated::ScVal, raw_val::ConversionError>", %"core::result::Result<stellar_xdr::next::generated::ScVal, raw_val::ConversionError>"* %0, i64 0, i32 0
  store i8 12, i8* %12, align 8
  br label %bb14

bb5:                                              ; preds = %start
  %__self_05 = getelementptr inbounds %"core::result::Result<stellar_xdr::next::generated::ScVal, raw_val::ConversionError>", %"core::result::Result<stellar_xdr::next::generated::ScVal, raw_val::ConversionError>"* %self, i64 0, i32 1, i64 3
  %13 = bitcast i8* %__self_05 to i32*
  %_10 = load i32, i32* %13, align 4
  %14 = getelementptr inbounds %"core::result::Result<stellar_xdr::next::generated::ScVal, raw_val::ConversionError>", %"core::result::Result<stellar_xdr::next::generated::ScVal, raw_val::ConversionError>"* %0, i64 0, i32 1, i64 3
  %15 = bitcast i8* %14 to i32*
  store i32 %_10, i32* %15, align 4
  %16 = getelementptr inbounds %"core::result::Result<stellar_xdr::next::generated::ScVal, raw_val::ConversionError>", %"core::result::Result<stellar_xdr::next::generated::ScVal, raw_val::ConversionError>"* %0, i64 0, i32 0
  store i8 13, i8* %16, align 8
  br label %bb14

bb6:                                              ; preds = %start
  %__self_04 = getelementptr inbounds %"core::result::Result<stellar_xdr::next::generated::ScVal, raw_val::ConversionError>", %"core::result::Result<stellar_xdr::next::generated::ScVal, raw_val::ConversionError>"* %self, i64 0, i32 1, i64 3
  %17 = bitcast i8* %__self_04 to i32*
  %18 = load i32, i32* %17, align 4, !range !960, !alias.scope !1133, !noundef !123
  %19 = getelementptr inbounds %"core::result::Result<stellar_xdr::next::generated::ScVal, raw_val::ConversionError>", %"core::result::Result<stellar_xdr::next::generated::ScVal, raw_val::ConversionError>"* %0, i64 0, i32 1, i64 3
  %20 = bitcast i8* %19 to i32*
  store i32 %18, i32* %20, align 4
  %21 = getelementptr inbounds %"core::result::Result<stellar_xdr::next::generated::ScVal, raw_val::ConversionError>", %"core::result::Result<stellar_xdr::next::generated::ScVal, raw_val::ConversionError>"* %0, i64 0, i32 0
  store i8 14, i8* %21, align 8
  br label %bb14

bb8:                                              ; preds = %start
  %_16.sroa.6.0.sroa_idx20 = getelementptr inbounds [6 x i8], [6 x i8]* %_16.sroa.6, i64 0, i64 0
  call void @llvm.lifetime.start.p0i8(i64 6, i8* nonnull %_16.sroa.6.0.sroa_idx20)
  tail call void @llvm.experimental.noalias.scope.decl(metadata !1136)
  %22 = icmp eq i8 %2, 10
  br i1 %22, label %"_ZN68_$LT$core..option..Option$LT$T$GT$$u20$as$u20$core..clone..Clone$GT$5clone17h1e28b4cc1180a7adE.exit", label %bb3.i

bb3.i:                                            ; preds = %bb8
  %_4.sroa.16.0.sroa_idx82.i = getelementptr inbounds [6 x i8], [6 x i8]* %_4.sroa.16.i, i64 0, i64 0
  call void @llvm.lifetime.start.p0i8(i64 6, i8* nonnull %_4.sroa.16.0.sroa_idx82.i)
  tail call void @llvm.experimental.noalias.scope.decl(metadata !1139) #23
  %_2.i.i = zext i8 %2 to i64
  switch i64 %_2.i.i, label %bb2.i.i [
    i64 0, label %bb3.i.i
    i64 1, label %bb5.i.i
    i64 2, label %bb7.i.i
    i64 3, label %bb8.i.i
    i64 4, label %bb9.i.i
    i64 5, label %bb11.i.i
    i64 6, label %bb13.i.i
    i64 7, label %bb15.i.i
    i64 8, label %bb17.i.i
    i64 9, label %bb1.i.i
  ]

bb2.i.i:                                          ; preds = %bb3.i
  unreachable

bb3.i.i:                                          ; preds = %bb3.i
  %23 = getelementptr inbounds %"core::result::Result<stellar_xdr::next::generated::ScVal, raw_val::ConversionError>", %"core::result::Result<stellar_xdr::next::generated::ScVal, raw_val::ConversionError>"* %self, i64 0, i32 1, i64 7
  %24 = bitcast %"soroban_env_verification::storage::Storage"* %_4.i.i to i8*
  call void @llvm.lifetime.start.p0i8(i64 24, i8* nonnull %24) #23, !noalias !1142
  %_4.i.i.i.i = bitcast i8* %23 to %"alloc::vec::Vec<alloc::rc::Rc<dyn soroban_env_verification::host::ContractFunctionSet>>"*
  %25 = getelementptr inbounds %"soroban_env_verification::storage::Storage", %"soroban_env_verification::storage::Storage"* %_4.i.i, i64 0, i32 0, i32 0
  call fastcc void @"_ZN67_$LT$alloc..vec..Vec$LT$T$C$A$GT$$u20$as$u20$core..clone..Clone$GT$5clone17hd06550a4c5162f83E"(%"alloc::vec::Vec<alloc::rc::Rc<dyn soroban_env_verification::host::ContractFunctionSet>>"* noalias nocapture noundef nonnull dereferenceable(24) %25, %"alloc::vec::Vec<alloc::rc::Rc<dyn soroban_env_verification::host::ContractFunctionSet>>"* noalias noundef nonnull readonly align 8 dereferenceable(24) %_4.i.i.i.i) #23, !noalias !1145
  %_4.sroa.19.8..sroa_idx10.i = getelementptr inbounds %"soroban_env_verification::storage::Storage", %"soroban_env_verification::storage::Storage"* %_4.i.i, i64 0, i32 0, i32 0, i32 0, i32 0
  %_4.sroa.19.8.copyload11.i = load i64, i64* %_4.sroa.19.8..sroa_idx10.i, align 8, !noalias !1146
  %_4.sroa.26.8..sroa_idx19.i = getelementptr inbounds %"soroban_env_verification::storage::Storage", %"soroban_env_verification::storage::Storage"* %_4.i.i, i64 0, i32 0, i32 0, i32 0, i32 1
  %_4.sroa.26.8..sroa_cast20.i = bitcast i64** %_4.sroa.26.8..sroa_idx19.i to i64*
